ccopy_reg
_reconstructor
p0
(cFWCore.ParameterSet.Config
Process
p1
c__builtin__
object
p2
Ntp3
Rp4
(dp5
S'_Process__sequences'
p6
(dp7
sS'_Process__services'
p8
(dp9
sS'_Process__source'
p10
g0
(cFWCore.ParameterSet.Modules
Source
p11
g2
Ntp12
Rp13
(dp14
S'_Parameterizable__parameterNames'
p15
(lp16
sS'_isFrozen'
p17
I00
sS'_isModified'
p18
I00
sS'_lineNumber'
p19
I192
sS'_filename'
p20
S'/cvmfs/cms.cern.ch/slc6_amd64_gcc630/cms/cmssw/CMSSW_9_4_10/python/FWCore/ParameterSet/Modules.py'
p21
sS'_TypedParameterizable__type'
p22
S'EmptySource'
p23
sbsS'_Process__aliases'
p24
(dp25
sS'_Process__psets'
p26
(dp27
S'maxEvents'
p28
g0
(cFWCore.ParameterSet.Types
PSet
p29
g2
Ntp30
Rp31
(dp32
g17
I00
sS'_ParameterTypeBase__isTracked'
p33
I00
sg18
I00
sg15
(lp34
S'input'
p35
asS'_Labelable__label'
p36
g28
sg35
g0
(cFWCore.ParameterSet.Types
int32
p37
g2
Ntp38
Rp39
(dp40
g17
I00
sg33
I00
sS'_value'
p41
I0
sg18
I00
sbsbssS'_Process__essources'
p42
(dp43
sg23
g13
sg28
g31
sS'source'
p44
g13
sS'_Process__vpsets'
p45
(dp46
sS'_Process__name'
p47
S'DONOTHING'
p48
sS'_Process__subProcesses'
p49
(lp50
sS'_cloneToObjectDict'
p51
(dp52
I139798262412816
g31
ssS'_Process__esprefers'
p53
(dp54
sS'_Process__schedule'
p55
NsS'_Process__outputmodules'
p56
(dp57
sS'_Process__analyzers'
p58
(dp59
sS'_Process__InExtendCall'
p60
I00
sS'_Process__modifiers'
p61
(tsS'_Process__producers'
p62
(dp63
sS'_Process__filters'
p64
(dp65
sS'_Process__looper'
p66
NsS'_Process__endpaths'
p67
g0
(cFWCore.ParameterSet.DictTypes
SortedKeysDict
p68
c__builtin__
dict
p69
(dp70
tp71
Rp72
(dp73
S'list'
p74
(lp75
sbsS'_Process__esproducers'
p76
(dp77
sS'_Process__tasks'
p78
(dp79
sS'_Process__paths'
p80
g0
(g68
g69
(dp81
tp82
Rp83
(dp84
g74
(lp85
sbsS'_Process__partialschedules'
p86
(dp87
sS'_Process__isStrict'
p88
I00
sb.