(dp1
S'OriginalConfig'
p2
ccopy_reg
_reconstructor
p3
(cWMCore.Configuration
Configuration
p4
c__builtin__
object
p5
NtRp6
(dp7
S'Site'
p8
g3
(cWMCore.Configuration
ConfigSection
p9
g5
NtRp10
(dp11
S'_internal_skipChecks'
p12
I00
sS'_internal_documentation'
p13
S''
sS'_internal_settings'
p14
c__builtin__
set
p15
((lp16
S'blacklist'
p17
aS'storageSite'
p18
atRp19
sS'_internal_name'
p20
g8
sS'_internal_docstrings'
p21
(dp22
sg17
(lp23
S'T3_TW_NTU_HEP'
p24
aS'T3_GR_IASA'
p25
aS'T2_GR_Ioannina'
p26
aS'T3_MX_Cinvestav'
p27
aS'T2_DE_RWTH'
p28
aS'T2_UK_SGrid_RALPP'
p29
aS'T3_RU_FIAN'
p30
aS'T2_FI_HIP'
p31
aS'T2_BR_SPRACE'
p32
aS'T2_ES_CIEMAT'
p33
aS'T2_EE_Estonia'
p34
asS'_internal_children'
p35
g15
((ltRp36
sg18
S'T2_CH_CERN'
p37
sS'_internal_parent_ref'
p38
NsbsS'_internal_sections'
p39
(lp40
S'General'
p41
aS'JobType'
p42
aS'Data'
p43
aS'User'
p44
ag8
asg41
g3
(g9
g5
NtRp45
(dp46
g12
I00
sg13
S''
sg14
g15
((lp47
S'transferOutputs'
p48
aS'transferLogs'
p49
aS'requestName'
p50
atRp51
sg20
g41
sg21
(dp52
sg48
I01
sg35
g15
((ltRp53
sg50
S'SingleMuon_Run2017E-31Mar2018-v1'
p54
sg38
Nsg49
I01
sbsS'_internal_webapps'
p55
(lp56
sg44
g3
(g9
g5
NtRp57
(dp58
g12
I00
sg13
S''
sg14
g15
((ltRp59
sg20
g44
sg21
(dp60
sg35
g15
((ltRp61
sg38
NsbsS'_internal_components'
p62
(lp63
sg43
g3
(g9
g5
NtRp64
(dp65
S'inputDataset'
p66
S'/SingleMuon/Run2017E-31Mar2018-v1/MINIAOD'
p67
sg12
I00
sS'unitsPerJob'
p68
I500000
sg13
S''
sg14
g15
((lp69
g66
aS'publication'
p70
ag68
aS'splitting'
p71
aS'lumiMask'
p72
aS'outLFNDirBase'
p73
atRp74
sg20
g43
sg71
S'EventAwareLumiBased'
p75
sg21
(dp76
sg35
g15
((ltRp77
sg73
S'/store/group/phys_smp/AnalysisFramework/Baobab/awisecar/2017/31Mar2018/DATA/v2'
p78
sg38
Nsg72
S'/afs/cern.ch/work/a/awisecar/WJetsNtuple16/CMSSW_9_4_10/src/shears/ntuple_production/datacards/Cert_294927-306462_13TeV_EOY2017ReReco_Collisions17_JSON.txt'
p79
sg70
I00
sbsg42
g3
(g9
g5
NtRp80
(dp81
g12
I00
sS'pyCfgParams'
p82
(lp83
S'maxEvents=-1'
p84
aS'year=2017'
p85
aS'isMC=0'
p86
asg13
S''
sg14
g15
((lp87
S'psetName'
p88
aS'pluginName'
p89
aS'maxJobRuntimeMin'
p90
ag82
atRp91
sg20
g42
sg21
(dp92
sg89
S'Analysis'
p93
sg35
g15
((ltRp94
sg88
S'grow_baobabs_cfg.py'
p95
sg38
Nsg90
I1400
sbsbsS'voGroup'
p96
S''
sS'Server'
p97
S'cmsweb.cern.ch'
p98
sS'instance'
p99
S'prod'
p100
sS'RequestName'
p101
V190723_231751:awisecar_crab_SingleMuon_Run2017E-31Mar2018-v1
p102
sS'voRole'
p103
S'NULL'
p104
sS'Port'
p105
S''
s.