ccopy_reg
_reconstructor
p0
(cFWCore.ParameterSet.Config
Process
p1
c__builtin__
object
p2
Ntp3
Rp4
(dp5
S'CaloGeometryBuilder'
p6
g0
(cFWCore.ParameterSet.Modules
ESProducer
p7
g2
Ntp8
Rp9
(dp10
S'_Parameterizable__parameterNames'
p11
(lp12
S'SelectedCalos'
p13
asS'_isFrozen'
p14
I00
sS'_isModified'
p15
I00
sS'_lineNumber'
p16
I52
sS'_filename'
p17
S'/cvmfs/cms.cern.ch/slc6_amd64_gcc630/cms/cmssw/CMSSW_9_4_10/python/FWCore/ParameterSet/Modules.py'
p18
sg13
g0
(cFWCore.ParameterSet.Types
vstring
p19
c__builtin__
list
p20
(lp21
S'HCAL'
p22
aS'ZDC'
p23
aS'CASTOR'
p24
aS'EcalBarrel'
p25
aS'EcalEndcap'
p26
aS'EcalPreshower'
p27
aS'TOWER'
p28
atp29
Rp30
(dp31
g14
I00
sS'_ParameterTypeBase__isTracked'
p32
I01
sg15
I00
sS'_nPerLine'
p33
I1
sbsS'_Labelable__label'
p34
g6
sS'_TypedParameterizable__type'
p35
g6
sbsS'_Process__sequences'
p36
(dp37
sS'_Process__source'
p38
g0
(cFWCore.ParameterSet.Modules
Source
p39
g2
Ntp40
Rp41
(dp42
g11
(lp43
S'fileNames'
p44
asg14
I00
sg15
I00
sg16
I192
sg17
g18
sg44
g0
(g19
g20
(lp45
S'root://xrootd-cms.infn.it//store/data/Run2017B/SingleMuon/MINIAOD/31Mar2018-v1/90000/FEC62083-1E39-E811-B2A1-0CC47A4D75F8.root'
p46
atp47
Rp48
(dp49
g14
I00
sg32
I00
sg15
I00
sg33
I1
sbsg35
S'PoolSource'
p50
sbsS'XMLFromDBSource'
p51
g0
(g7
g2
Ntp52
Rp53
(dp54
g11
(lp55
S'rootDDName'
p56
aS'label'
p57
asg14
I00
sg15
I00
sg16
I52
sg17
g18
sg56
g0
(cFWCore.ParameterSet.Types
string
p58
g2
Ntp59
Rp60
(dp61
g14
I00
sg32
I01
sS'_value'
p62
S'cms:OCMS'
p63
sg15
I00
sbsg57
g0
(g58
g2
Ntp64
Rp65
(dp66
g14
I00
sg32
I01
sg62
S'Extended'
p67
sg15
I00
sbsg34
g51
sg35
S'XMLIdealGeometryESProducer'
p68
sbsS'TFileService'
p69
g0
(cFWCore.ParameterSet.Modules
Service
p70
g2
Ntp71
Rp72
(dp73
g11
(lp74
S'fileName'
p75
asg14
I00
sS'_inProcess'
p76
I01
sg15
I00
sg16
I10
sg17
g18
sg75
g0
(g58
g2
Ntp77
Rp78
(dp79
g14
I00
sg32
I01
sg62
S'ntupleOut.root'
p80
sg15
I00
sbsg35
g69
sbsS'hcalDDDSimConstants'
p81
g0
(g7
g2
Ntp82
Rp83
(dp84
g11
(lp85
S'appendToDataLabel'
p86
asg14
I00
sg86
g0
(g58
g2
Ntp87
Rp88
(dp89
g14
I00
sg32
I01
sg62
S''
p90
sg15
I00
sbsg15
I00
sg16
I52
sg17
g18
sg34
g81
sg35
S'HcalDDDSimConstantsESModule'
p91
sbsS'source'
p92
g41
sS'RandomNumberGeneratorService'
p93
g0
(g70
g2
Ntp94
Rp95
(dp96
g14
I00
sS'horeco'
p97
g0
(cFWCore.ParameterSet.Types
PSet
p98
g2
Ntp99
Rp100
(dp101
g14
I00
sg32
I01
sg15
I00
sS'initialSeed'
p102
g0
(cFWCore.ParameterSet.Types
uint32
p103
g2
Ntp104
Rp105
(dp106
g14
I00
sg32
I00
sg62
I541321
sg15
I00
sbsg11
(lp107
g102
aS'engineName'
p108
asg108
g0
(g58
g2
Ntp109
Rp110
(dp111
g14
I00
sg32
I00
sg62
S'TRandom3'
p112
sg15
I00
sbsbsg16
I10
sS'paramMuons'
p113
g0
(g98
g2
Ntp114
Rp115
(dp116
g14
I00
sg32
I01
sg15
I00
sg102
g0
(g103
g2
Ntp117
Rp118
(dp119
g14
I00
sg32
I00
sg62
I54525
sg15
I00
sbsg11
(lp120
g102
ag108
asg108
g0
(g58
g2
Ntp121
Rp122
(dp123
g14
I00
sg32
I00
sg62
g112
sg15
I00
sbsbsS'saveFileName'
p124
g0
(g58
g2
Ntp125
Rp126
(dp127
g14
I00
sg32
I00
sg62
g90
sg15
I00
sbsS'hbhereco'
p128
g0
(g98
g2
Ntp129
Rp130
(dp131
g14
I00
sg32
I01
sg15
I00
sg102
g0
(g103
g2
Ntp132
Rp133
(dp134
g14
I00
sg32
I00
sg62
I541321
sg15
I00
sbsg11
(lp135
g102
ag108
asg108
g0
(g58
g2
Ntp136
Rp137
(dp138
g14
I00
sg32
I00
sg62
g112
sg15
I00
sbsbsS'simSiStripDigiSimLink'
p139
g0
(g98
g2
Ntp140
Rp141
(dp142
g14
I00
sg32
I01
sg15
I00
sg102
g0
(g103
g2
Ntp143
Rp144
(dp145
g14
I00
sg32
I00
sg62
I1234567
sg15
I00
sbsg11
(lp146
g102
ag108
asg108
g0
(g58
g2
Ntp147
Rp148
(dp149
g14
I00
sg32
I00
sg62
S'HepJamesRandom'
p150
sg15
I00
sbsbsS'externalLHEProducer'
p151
g0
(g98
g2
Ntp152
Rp153
(dp154
g14
I00
sg32
I01
sg15
I00
sg102
g0
(g103
g2
Ntp155
Rp156
(dp157
g14
I00
sg32
I00
sg62
I234567
sg15
I00
sbsg11
(lp158
g102
ag108
asg108
g0
(g58
g2
Ntp159
Rp160
(dp161
g14
I00
sg32
I00
sg62
g150
sg15
I00
sbsbsS'famosPileUp'
p162
g0
(g98
g2
Ntp163
Rp164
(dp165
g14
I00
sg32
I01
sg15
I00
sg102
g0
(g103
g2
Ntp166
Rp167
(dp168
g14
I00
sg32
I00
sg62
I918273
sg15
I00
sbsg11
(lp169
g102
ag108
asg108
g0
(g58
g2
Ntp170
Rp171
(dp172
g14
I00
sg32
I00
sg62
g112
sg15
I00
sbsbsS'simMuonDTDigis'
p173
g0
(g98
g2
Ntp174
Rp175
(dp176
g14
I00
sg32
I01
sg15
I00
sg102
g0
(g103
g2
Ntp177
Rp178
(dp179
g14
I00
sg32
I00
sg62
I1234567
sg15
I00
sbsg11
(lp180
g102
ag108
asg108
g0
(g58
g2
Ntp181
Rp182
(dp183
g14
I00
sg32
I00
sg62
g150
sg15
I00
sbsbsg35
g93
sg11
(lp184
g97
ag113
ag124
ag128
ag139
ag151
ag162
ag173
aS'ecalPreshowerRecHit'
p185
aS'generator'
p186
aS'simMuonRPCDigis'
p187
aS'hiSignal'
p188
aS'CTPPSFastRecHits'
p189
aS'mixSimCaloHits'
p190
aS'mix'
p191
aS'fastTrackerRecHits'
p192
aS'VtxSmeared'
p193
aS'LHCTransport'
p194
aS'ecalRecHit'
p195
aS'hfreco'
p196
aS'mixRecoTracks'
p197
aS'hiSignalG4SimHits'
p198
aS'famosSimHits'
p199
aS'MuonSimHits'
p200
aS'g4SimHits'
p201
aS'hiSignalLHCTransport'
p202
aS'mixGenPU'
p203
aS'l1ParamMuons'
p204
aS'simBeamSpotFilter'
p205
aS'simMuonCSCDigis'
p206
aS'mixData'
p207
asg185
g0
(g98
g2
Ntp208
Rp209
(dp210
g14
I00
sg32
I01
sg15
I00
sg102
g0
(g103
g2
Ntp211
Rp212
(dp213
g14
I00
sg32
I00
sg62
I6541321
sg15
I00
sbsg11
(lp214
g102
ag108
asg108
g0
(g58
g2
Ntp215
Rp216
(dp217
g14
I00
sg32
I00
sg62
g112
sg15
I00
sbsbsg76
I01
sg186
g0
(g98
g2
Ntp218
Rp219
(dp220
g14
I00
sg32
I01
sg15
I00
sg102
g0
(g103
g2
Ntp221
Rp222
(dp223
g14
I00
sg32
I00
sg62
I123456789
sg15
I00
sbsg11
(lp224
g102
ag108
asg108
g0
(g58
g2
Ntp225
Rp226
(dp227
g14
I00
sg32
I00
sg62
g150
sg15
I00
sbsbsg187
g0
(g98
g2
Ntp228
Rp229
(dp230
g14
I00
sg32
I01
sg15
I00
sg102
g0
(g103
g2
Ntp231
Rp232
(dp233
g14
I00
sg32
I00
sg62
I1234567
sg15
I00
sbsg11
(lp234
g102
ag108
asg108
g0
(g58
g2
Ntp235
Rp236
(dp237
g14
I00
sg32
I00
sg62
g150
sg15
I00
sbsbsg188
g0
(g98
g2
Ntp238
Rp239
(dp240
g14
I00
sg32
I01
sg15
I00
sg102
g0
(g103
g2
Ntp241
Rp242
(dp243
g14
I00
sg32
I00
sg62
I123456789
sg15
I00
sbsg11
(lp244
g102
ag108
asg108
g0
(g58
g2
Ntp245
Rp246
(dp247
g14
I00
sg32
I00
sg62
g150
sg15
I00
sbsbsg189
g0
(g98
g2
Ntp248
Rp249
(dp250
g14
I00
sg32
I01
sg15
I00
sg102
g0
(g103
g2
Ntp251
Rp252
(dp253
g14
I00
sg32
I00
sg62
I1357987
sg15
I00
sbsg11
(lp254
g102
ag108
asg108
g0
(g58
g2
Ntp255
Rp256
(dp257
g14
I00
sg32
I00
sg62
g112
sg15
I00
sbsbsg190
g0
(g98
g2
Ntp258
Rp259
(dp260
g14
I00
sg32
I01
sg15
I00
sg102
g0
(g103
g2
Ntp261
Rp262
(dp263
g14
I00
sg32
I00
sg62
I918273
sg15
I00
sbsg11
(lp264
g102
ag108
asg108
g0
(g58
g2
Ntp265
Rp266
(dp267
g14
I00
sg32
I00
sg62
g112
sg15
I00
sbsbsg191
g0
(g98
g2
Ntp268
Rp269
(dp270
g14
I00
sg32
I01
sg15
I00
sg102
g0
(g103
g2
Ntp271
Rp272
(dp273
g14
I00
sg32
I00
sg62
I12345
sg15
I00
sbsg11
(lp274
g102
ag108
asg108
g0
(g58
g2
Ntp275
Rp276
(dp277
g14
I00
sg32
I00
sg62
g150
sg15
I00
sbsbsg192
g0
(g98
g2
Ntp278
Rp279
(dp280
g14
I00
sg32
I01
sg15
I00
sg102
g0
(g103
g2
Ntp281
Rp282
(dp283
g14
I00
sg32
I00
sg62
I24680
sg15
I00
sbsg11
(lp284
g102
ag108
asg108
g0
(g58
g2
Ntp285
Rp286
(dp287
g14
I00
sg32
I00
sg62
g112
sg15
I00
sbsbsg193
g0
(g98
g2
Ntp288
Rp289
(dp290
g14
I00
sg32
I01
sg15
I00
sg102
g0
(g103
g2
Ntp291
Rp292
(dp293
g14
I00
sg32
I00
sg62
I98765432
sg15
I00
sbsg11
(lp294
g102
ag108
asg108
g0
(g58
g2
Ntp295
Rp296
(dp297
g14
I00
sg32
I00
sg62
g150
sg15
I00
sbsbsg194
g0
(g98
g2
Ntp298
Rp299
(dp300
g14
I00
sg32
I01
sg15
I00
sg102
g0
(g103
g2
Ntp301
Rp302
(dp303
g14
I00
sg32
I00
sg62
I87654321
sg15
I00
sbsg11
(lp304
g102
ag108
asg108
g0
(g58
g2
Ntp305
Rp306
(dp307
g14
I00
sg32
I00
sg62
g112
sg15
I00
sbsbsg195
g0
(g98
g2
Ntp308
Rp309
(dp310
g14
I00
sg32
I01
sg15
I00
sg102
g0
(g103
g2
Ntp311
Rp312
(dp313
g14
I00
sg32
I00
sg62
I654321
sg15
I00
sbsg11
(lp314
g102
ag108
asg108
g0
(g58
g2
Ntp315
Rp316
(dp317
g14
I00
sg32
I00
sg62
g112
sg15
I00
sbsbsg207
g0
(g98
g2
Ntp318
Rp319
(dp320
g14
I00
sg32
I01
sg15
I00
sg102
g0
(g103
g2
Ntp321
Rp322
(dp323
g14
I00
sg32
I00
sg62
I12345
sg15
I00
sbsg11
(lp324
g102
ag108
asg108
g0
(g58
g2
Ntp325
Rp326
(dp327
g14
I00
sg32
I00
sg62
g150
sg15
I00
sbsbsg197
g0
(g98
g2
Ntp328
Rp329
(dp330
g14
I00
sg32
I01
sg15
I00
sg102
g0
(g103
g2
Ntp331
Rp332
(dp333
g14
I00
sg32
I00
sg62
I918273
sg15
I00
sbsg11
(lp334
g102
ag108
asg108
g0
(g58
g2
Ntp335
Rp336
(dp337
g14
I00
sg32
I00
sg62
g112
sg15
I00
sbsbsg198
g0
(g98
g2
Ntp338
Rp339
(dp340
g14
I00
sg32
I01
sg15
I00
sg102
g0
(g103
g2
Ntp341
Rp342
(dp343
g14
I00
sg32
I00
sg62
I11
sg15
I00
sbsg11
(lp344
g102
ag108
asg108
g0
(g58
g2
Ntp345
Rp346
(dp347
g14
I00
sg32
I00
sg62
g150
sg15
I00
sbsbsg199
g0
(g98
g2
Ntp348
Rp349
(dp350
g14
I00
sg32
I01
sg15
I00
sg102
g0
(g103
g2
Ntp351
Rp352
(dp353
g14
I00
sg32
I00
sg62
I13579
sg15
I00
sbsg11
(lp354
g102
ag108
asg108
g0
(g58
g2
Ntp355
Rp356
(dp357
g14
I00
sg32
I00
sg62
g112
sg15
I00
sbsbsg200
g0
(g98
g2
Ntp358
Rp359
(dp360
g14
I00
sg32
I01
sg15
I00
sg102
g0
(g103
g2
Ntp361
Rp362
(dp363
g14
I00
sg32
I00
sg62
I987346
sg15
I00
sbsg11
(lp364
g102
ag108
asg108
g0
(g58
g2
Ntp365
Rp366
(dp367
g14
I00
sg32
I00
sg62
g112
sg15
I00
sbsbsg201
g0
(g98
g2
Ntp368
Rp369
(dp370
g14
I00
sg32
I01
sg15
I00
sg102
g0
(g103
g2
Ntp371
Rp372
(dp373
g14
I00
sg32
I00
sg62
I11
sg15
I00
sbsg11
(lp374
g102
ag108
asg108
g0
(g58
g2
Ntp375
Rp376
(dp377
g14
I00
sg32
I00
sg62
g150
sg15
I00
sbsbsg202
g0
(g98
g2
Ntp378
Rp379
(dp380
g14
I00
sg32
I01
sg15
I00
sg102
g0
(g103
g2
Ntp381
Rp382
(dp383
g14
I00
sg32
I00
sg62
I88776655
sg15
I00
sbsg11
(lp384
g102
ag108
asg108
g0
(g58
g2
Ntp385
Rp386
(dp387
g14
I00
sg32
I00
sg62
g112
sg15
I00
sbsbsg203
g0
(g98
g2
Ntp388
Rp389
(dp390
g14
I00
sg32
I01
sg15
I00
sg102
g0
(g103
g2
Ntp391
Rp392
(dp393
g14
I00
sg32
I00
sg62
I918273
sg15
I00
sbsg11
(lp394
g102
ag108
asg108
g0
(g58
g2
Ntp395
Rp396
(dp397
g14
I00
sg32
I00
sg62
g112
sg15
I00
sbsbsg204
g0
(g98
g2
Ntp398
Rp399
(dp400
g14
I00
sg32
I01
sg15
I00
sg102
g0
(g103
g2
Ntp401
Rp402
(dp403
g14
I00
sg32
I00
sg62
I6453209
sg15
I00
sbsg11
(lp404
g102
ag108
asg108
g0
(g58
g2
Ntp405
Rp406
(dp407
g14
I00
sg32
I00
sg62
g112
sg15
I00
sbsbsg15
I00
sg205
g0
(g98
g2
Ntp408
Rp409
(dp410
g14
I00
sg32
I01
sg15
I00
sg102
g0
(g103
g2
Ntp411
Rp412
(dp413
g14
I00
sg32
I00
sg62
I87654321
sg15
I00
sbsg11
(lp414
g102
ag108
asg108
g0
(g58
g2
Ntp415
Rp416
(dp417
g14
I00
sg32
I00
sg62
g150
sg15
I00
sbsbsg206
g0
(g98
g2
Ntp418
Rp419
(dp420
g14
I00
sg32
I01
sg15
I00
sg102
g0
(g103
g2
Ntp421
Rp422
(dp423
g14
I00
sg32
I00
sg62
I11223344
sg15
I00
sbsg11
(lp424
g102
ag108
asg108
g0
(g58
g2
Ntp425
Rp426
(dp427
g14
I00
sg32
I00
sg62
g150
sg15
I00
sbsbsg196
g0
(g98
g2
Ntp428
Rp429
(dp430
g14
I00
sg32
I01
sg15
I00
sg102
g0
(g103
g2
Ntp431
Rp432
(dp433
g14
I00
sg32
I00
sg62
I541321
sg15
I00
sbsg11
(lp434
g102
ag108
asg108
g0
(g58
g2
Ntp435
Rp436
(dp437
g14
I00
sg32
I00
sg62
g112
sg15
I00
sbsbsg17
g18
sbsS'CaloTowerGeometryFromDBEP'
p438
g0
(g7
g2
Ntp439
Rp440
(dp441
g11
(lp442
S'applyAlignment'
p443
asg14
I00
sg15
I00
sg16
I52
sg17
g18
sg34
g438
sg443
g0
(cFWCore.ParameterSet.Types
bool
p444
g2
Ntp445
Rp446
(dp447
g14
I00
sg32
I01
sg62
I00
sg15
I00
sbsg35
g438
sbsS'_Process__InExtendCall'
p448
I00
sS'_Process__producers'
p449
(dp450
S'randomEngineStateProducer'
p451
g0
(cFWCore.ParameterSet.Modules
EDProducer
p452
g2
Ntp453
Rp454
(dp455
g11
(lp456
sg14
I00
sg15
I00
sg16
I173
sg17
S'/cvmfs/cms.cern.ch/slc6_amd64_gcc630/cms/cmssw/CMSSW_9_4_10/python/IOMC/RandomEngine/IOMC_cff.py'
p457
sg34
g451
sg35
S'RandomEngineStateProducer'
p458
sbssS'siPixelQualityESProducer'
p459
g0
(g7
g2
Ntp460
Rp461
(dp462
g11
(lp463
S'ListOfRecordToMerge'
p464
asg14
I00
sg15
I01
sg16
I52
sg17
g18
sg464
g0
(cFWCore.ParameterSet.Types
VPSet
p465
g20
(lp466
g0
(g98
g2
Ntp467
Rp468
(dp469
g14
I00
sg32
I01
sg15
I00
sS'record'
p470
g0
(g58
g2
Ntp471
Rp472
(dp473
g14
I00
sg32
I01
sg62
S'SiPixelQualityFromDbRcd'
p474
sg15
I00
sbsS'tag'
p475
g0
(g58
g2
Ntp476
Rp477
(dp478
g14
I00
sg32
I01
sg62
g90
sg15
I00
sbsg11
(lp479
g470
ag475
asbag0
(g98
g2
Ntp480
Rp481
(dp482
g14
I00
sg32
I01
sg15
I00
sg470
g0
(g58
g2
Ntp483
Rp484
(dp485
g14
I00
sg32
I01
sg62
S'SiPixelDetVOffRcd'
p486
sg15
I00
sbsg475
g0
(g58
g2
Ntp487
Rp488
(dp489
g14
I00
sg32
I01
sg62
g90
sg15
I00
sbsg11
(lp490
g470
ag475
asbatp491
Rp492
(dp493
g14
I00
sg32
I01
sg15
I00
sg33
I1
sbsg34
g459
sg35
S'SiPixelQualityESProducer'
p494
sbsS'GlobalTag'
p495
g0
(cFWCore.ParameterSet.Modules
ESSource
p496
g2
Ntp497
Rp498
(dp499
g11
(lp500
S'DBParameters'
p501
aS'connect'
p502
aS'globaltag'
p503
aS'RefreshEachRun'
p504
aS'pfnPrefix'
p505
aS'snapshotTime'
p506
aS'toGet'
p507
aS'pfnPostfix'
p508
aS'RefreshAlways'
p509
aS'ReconnectEachRun'
p510
aS'RefreshOpenIOVs'
p511
aS'DumpStat'
p512
asg14
I00
sg17
S'/cvmfs/cms.cern.ch/slc6_amd64_gcc630/cms/cmssw/CMSSW_9_4_10/python/CondCore/ESSources/CondDBESSource_cfi.py'
p513
sg15
I01
sg503
g0
(g58
g2
Ntp514
Rp515
(dp516
g14
I00
sg32
I01
sg62
S'94X_dataRun2_v11'
p517
sg15
I01
sbsg504
g0
(g444
g2
Ntp518
Rp519
(dp520
g14
I00
sg32
I00
sg62
I00
sg15
I00
sbsg505
g0
(g58
g2
Ntp521
Rp522
(dp523
g14
I00
sg32
I00
sg62
g90
sg15
I00
sbsg506
g0
(g58
g2
Ntp524
Rp525
(dp526
g14
I00
sg32
I01
sg62
g90
sg15
I00
sbsg507
g0
(g465
g20
(lp527
tp528
Rp529
(dp530
g14
I00
sg32
I01
sg15
I00
sg33
I1
sbsg508
g0
(g58
g2
Ntp531
Rp532
(dp533
g14
I00
sg32
I00
sg62
g90
sg15
I00
sbsg501
g0
(g98
g2
Ntp534
Rp535
(dp536
g14
I00
sg32
I01
sS'authenticationPath'
p537
g0
(g58
g2
Ntp538
Rp539
(dp540
g14
I00
sg32
I00
sg62
g90
sg15
I00
sbsg15
I00
sS'messageLevel'
p541
g0
(cFWCore.ParameterSet.Types
int32
p542
g2
Ntp543
Rp544
(dp545
g14
I00
sg32
I00
sg62
I0
sg15
I00
sbsg11
(lp546
g541
aS'security'
p547
aS'authenticationSystem'
p548
ag537
asg547
g0
(g58
g2
Ntp549
Rp550
(dp551
g14
I00
sg32
I00
sg62
g90
sg15
I00
sbsg548
g0
(g542
g2
Ntp552
Rp553
(dp554
g14
I00
sg32
I00
sg62
I0
sg15
I00
sbsbsg509
g0
(g444
g2
Ntp555
Rp556
(dp557
g14
I00
sg32
I00
sg62
I00
sg15
I00
sbsg16
I19
sg502
g0
(g58
g2
Ntp558
Rp559
(dp560
g14
I00
sg32
I01
sg62
S'frontier://FrontierProd/CMS_CONDITIONS'
p561
sg15
I00
sbsg510
g0
(g444
g2
Ntp562
Rp563
(dp564
g14
I00
sg32
I00
sg62
I00
sg15
I00
sbsg34
g495
sg511
g0
(g444
g2
Ntp565
Rp566
(dp567
g14
I00
sg32
I00
sg62
I00
sg15
I00
sbsg512
g0
(g444
g2
Ntp568
Rp569
(dp570
g14
I00
sg32
I00
sg62
I00
sg15
I00
sbsg35
S'PoolDBESSource'
p571
sbsS'_Process__endpaths'
p572
g0
(cFWCore.ParameterSet.DictTypes
SortedKeysDict
p573
c__builtin__
dict
p574
(dp575
tp576
Rp577
(dp578
S'list'
p579
(lp580
sbsS'p'
p581
g0
(cFWCore.ParameterSet.SequenceTypes
Path
p582
g2
Ntp583
Rp584
(dp585
g14
I00
sS'_seq'
p586
g0
(cFWCore.ParameterSet.SequenceTypes
_SequenceCollection
p587
g2
Ntp588
Rp589
(dp590
S'_collection'
p591
(lp592
g0
(cFWCore.ParameterSet.Modules
EDAnalyzer
p593
g2
Ntp594
Rp595
(dp596
g14
I00
sS'triggerStat'
p597
g0
(g444
g2
Ntp598
Rp599
(dp600
g14
I00
sg32
I00
sg62
I00
sg15
I00
sbsS'noiseFilterTag'
p601
g0
(cFWCore.ParameterSet.Types
InputTag
p602
g2
Ntp603
Rp604
(dp605
g14
I00
sg32
I01
sg15
I00
sS'_InputTag__moduleLabel'
p606
S'TriggerResults'
p607
sS'_InputTag__processName'
p608
S'PAT'
p609
sS'_InputTag__productInstance'
p610
g90
sbsS'jetAK8Src'
p611
g0
(g602
g2
Ntp612
Rp613
(dp614
g14
I00
sg32
I00
sg15
I00
sg606
S'slimmedJetsAK8'
p615
sg608
g90
sg610
g90
sbsg16
I119
sS'HBHENoiseIsoFilter_Selector_'
p616
g0
(g58
g2
Ntp617
Rp618
(dp619
g14
I00
sg32
I01
sg62
S'Flag_HBHENoiseIsoFilter'
p620
sg15
I00
sbsS'vertexSrc'
p621
g0
(g602
g2
Ntp622
Rp623
(dp624
g14
I00
sg32
I00
sg15
I00
sg606
S'offlineSlimmedPrimaryVertices'
p625
sg608
g90
sg610
g90
sbsS'muonSrc'
p626
g0
(g602
g2
Ntp627
Rp628
(dp629
g14
I00
sg32
I00
sg15
I00
sg606
S'slimmedMuons'
p630
sg608
g90
sg610
g90
sbsS'GoodVtxNoiseFilter_Selector_'
p631
g0
(g58
g2
Ntp632
Rp633
(dp634
g14
I00
sg32
I01
sg62
S'Flag_goodVertices'
p635
sg15
I00
sbsS'genSrc'
p636
g0
(g602
g2
Ntp637
Rp638
(dp639
g14
I00
sg32
I00
sg15
I00
sg606
S'prunedGenParticles'
p640
sg608
g90
sg610
g90
sbsg11
(lp641
g597
ag601
ag611
ag616
ag621
ag626
ag631
ag636
aS'puMvaName'
p642
aS'GlobalSuperTightHalo2016NoiseFilter_Selector_'
p643
aS'DJALOG'
p644
aS'metSrc'
p645
aS'triggerObjectTag'
p646
aS'triggerSrc'
p647
aS'triggerMenu'
p648
aS'lheSrc'
p649
aS'EcalDeadCellTriggerPrimitiveNoiseFilter_Selector_'
p650
aS'BadPFMuonFilter_Selector_'
p651
aS'EEBadScNoiseFilter_Selector_'
p652
aS'HBHENoiseFilter_Selector_'
p653
aS'gjetSrc'
p654
aS'puJetIdSrc'
p655
aS'mSrcRho'
p656
aS'puSrc'
p657
aS'jetSrc'
p658
asg642
g0
(g58
g2
Ntp659
Rp660
(dp661
g14
I00
sg32
I00
sg62
S'pileupJetId:fullDiscriminan'
p662
sg15
I00
sbsg643
g0
(g58
g2
Ntp663
Rp664
(dp665
g14
I00
sg32
I01
sg62
S'Flag_globalSuperTightHalo2016Filter'
p666
sg15
I00
sbsg17
S'/afs/cern.ch/work/a/awisecar/WJetsNtuple16/CMSSW_9_4_10/src/shears/ntuple_production/grow_baobabs_cfg.py'
p667
sg644
g0
(g444
g2
Ntp668
Rp669
(dp670
g14
I00
sg32
I00
sg62
I00
sg15
I00
sbsg645
g0
(g602
g2
Ntp671
Rp672
(dp673
g14
I00
sg32
I00
sg15
I00
sg606
S'slimmedMETs'
p674
sg608
g90
sg610
g90
sbsg646
g0
(g602
g2
Ntp675
Rp676
(dp677
g14
I00
sg32
I00
sg15
I00
sg606
S'slimmedPatTrigger'
p678
sg608
g90
sg610
g90
sbsg647
g0
(g602
g2
Ntp679
Rp680
(dp681
g14
I00
sg32
I01
sg15
I00
sg606
g607
sg608
S'HLT'
p682
sg610
g90
sbsg35
S'Tupel'
p683
sg648
g0
(g58
g2
Ntp684
Rp685
(dp686
g14
I00
sg32
I00
sg62
S'2017'
p687
sg15
I00
sbsg649
g0
(g602
g2
Ntp688
Rp689
(dp690
g14
I00
sg32
I00
sg15
I00
sg606
g151
sg608
g90
sg610
g90
sbsg650
g0
(g58
g2
Ntp691
Rp692
(dp693
g14
I00
sg32
I01
sg62
S'Flag_EcalDeadCellTriggerPrimitiveFilter'
p694
sg15
I00
sbsg651
g0
(g58
g2
Ntp695
Rp696
(dp697
g14
I00
sg32
I01
sg62
S'Flag_BadPFMuonFilter'
p698
sg15
I00
sbsg652
g0
(g58
g2
Ntp699
Rp700
(dp701
g14
I00
sg32
I01
sg62
S'Flag_eeBadScFilter'
p702
sg15
I00
sbsg658
g0
(g602
g2
Ntp703
Rp704
(dp705
g14
I00
sg32
I00
sg15
I00
sg606
S'slimmedJets'
p706
sg608
g90
sg610
g90
sbsg654
g0
(g602
g2
Ntp707
Rp708
(dp709
g14
I00
sg32
I00
sg15
I00
sg606
S'slimmedGenJets'
p710
sg608
g90
sg610
g90
sbsg15
I00
sg655
g0
(g602
g2
Ntp711
Rp712
(dp713
g14
I00
sg32
I00
sg15
I00
sg606
S'pileupJetId'
p714
sg608
g90
sg610
g90
sbsg656
g0
(g602
g2
Ntp715
Rp716
(dp717
g14
I00
sg32
I00
sg15
I00
sg606
S'fixedGridRhoFastjetAll'
p718
sg608
g90
sg610
g90
sbsg657
g0
(g602
g2
Ntp719
Rp720
(dp721
g14
I00
sg32
I00
sg15
I00
sg606
S'slimmedAddPileupInfo'
p722
sg608
g90
sg610
g90
sbsg653
g0
(g58
g2
Ntp723
Rp724
(dp725
g14
I00
sg32
I01
sg62
S'Flag_HBHENoiseFilter'
p726
sg15
I00
sbsg34
S'tupel'
p727
sbasbsg34
g581
sg15
I00
sS'_tasks'
p728
g0
(cFWCore.ParameterSet.OrderedSet
OrderedSet
p729
g2
Ntp730
Rp731
(dp732
S'map'
p733
(dp734
sS'end'
p735
(lp736
Nag736
ag736
asbsbsS'MuonDetLayerGeometryESProducer'
p737
g0
(g7
g2
Ntp738
Rp739
(dp740
g11
(lp741
sg14
I00
sg15
I00
sg16
I52
sg17
g18
sg34
g737
sg35
g737
sbsS'EcalEndcapGeometryFromDBEP'
p742
g0
(g7
g2
Ntp743
Rp744
(dp745
g11
(lp746
g443
asg14
I00
sg15
I01
sg16
I52
sg17
g18
sg34
g742
sg443
g0
(g444
g2
Ntp747
Rp748
(dp749
g14
I00
sg32
I01
sg62
I01
sg15
I01
sbsg35
g742
sbsS'MessageLogger'
p750
g0
(g70
g2
Ntp751
Rp752
(dp753
g14
I00
sS'suppressInfo'
p754
g0
(g19
g20
(lp755
tp756
Rp757
(dp758
g14
I00
sg32
I00
sg15
I00
sg33
I1
sbsS'suppressDebug'
p759
g0
(g19
g20
(lp760
tp761
Rp762
(dp763
g14
I00
sg32
I00
sg15
I00
sg33
I1
sbsS'cout'
p764
g0
(g98
g2
Ntp765
Rp766
(dp767
g14
I00
sg32
I00
sS'placeholder'
p768
g0
(g444
g2
Ntp769
Rp770
(dp771
g14
I00
sg32
I00
sg62
I01
sg15
I00
sbsg15
I00
sg11
(lp772
g768
asbsg16
I10
sS'debugModules'
p773
g0
(g19
g20
(lp774
tp775
Rp776
(dp777
g14
I00
sg32
I00
sg15
I00
sg33
I1
sbsg35
g750
sS'fwkJobReports'
p778
g0
(g19
g20
(lp779
S'FrameworkJobReport'
p780
atp781
Rp782
(dp783
g14
I00
sg32
I00
sg15
I00
sg33
I1
sbsg11
(lp784
g754
aS'debugs'
p785
ag759
ag764
aS'cerr_stats'
p786
aS'warnings'
p787
aS'default'
p788
aS'statistics'
p789
aS'cerr'
p790
ag780
aS'suppressWarning'
p791
aS'errors'
p792
aS'destinations'
p793
ag773
aS'infos'
p794
aS'categories'
p795
ag778
asg789
g0
(g19
g20
(lp796
g786
atp797
Rp798
(dp799
g14
I00
sg32
I00
sg15
I00
sg33
I1
sbsg17
g18
sg793
g0
(g19
g20
(lp800
g787
ag792
ag794
ag785
ag764
ag790
atp801
Rp802
(dp803
g14
I00
sg32
I00
sg15
I00
sg33
I1
sbsg785
g0
(g98
g2
Ntp804
Rp805
(dp806
g14
I00
sg32
I00
sg768
g0
(g444
g2
Ntp807
Rp808
(dp809
g14
I00
sg32
I00
sg62
I01
sg15
I00
sbsg15
I00
sg11
(lp810
g768
asbsg787
g0
(g98
g2
Ntp811
Rp812
(dp813
g14
I00
sg32
I00
sg768
g0
(g444
g2
Ntp814
Rp815
(dp816
g14
I00
sg32
I00
sg62
I01
sg15
I00
sbsg15
I00
sg11
(lp817
g768
asbsg792
g0
(g98
g2
Ntp818
Rp819
(dp820
g14
I00
sg32
I00
sg768
g0
(g444
g2
Ntp821
Rp822
(dp823
g14
I00
sg32
I00
sg62
I01
sg15
I00
sbsg15
I00
sg11
(lp824
g768
asbsg780
g0
(g98
g2
Ntp825
Rp826
(dp827
g14
I00
sg32
I00
sg15
I00
sg788
g0
(g98
g2
Ntp828
Rp829
(dp830
g14
I00
sg32
I00
sS'limit'
p831
g0
(g542
g2
Ntp832
Rp833
(dp834
g14
I00
sg32
I00
sg62
I0
sg15
I00
sbsg15
I00
sg11
(lp835
g831
asbsS'FwkJob'
p836
g0
(g98
g2
Ntp837
Rp838
(dp839
g14
I00
sg32
I00
sg15
I00
sg831
g0
(g542
g2
Ntp840
Rp841
(dp842
g14
I00
sg32
I00
sg62
I10000000
sg15
I00
sbsg11
(lp843
S'optionalPSet'
p844
ag831
asg844
g0
(g444
g2
Ntp845
Rp846
(dp847
g14
I00
sg32
I00
sg62
I01
sg15
I00
sbsbsg11
(lp848
g788
ag844
ag836
asg844
g0
(g444
g2
Ntp849
Rp850
(dp851
g14
I00
sg32
I00
sg62
I01
sg15
I00
sbsbsg791
g0
(g19
g20
(lp852
tp853
Rp854
(dp855
g14
I00
sg32
I00
sg15
I00
sg33
I1
sbsg794
g0
(g98
g2
Ntp856
Rp857
(dp858
g14
I00
sg32
I00
sg15
I00
sS'Root_NoDictionary'
p859
g0
(g98
g2
Ntp860
Rp861
(dp862
g14
I00
sg32
I00
sg15
I00
sg831
g0
(g542
g2
Ntp863
Rp864
(dp865
g14
I00
sg32
I00
sg62
I0
sg15
I00
sbsg11
(lp866
g844
ag831
asg844
g0
(g444
g2
Ntp867
Rp868
(dp869
g14
I00
sg32
I00
sg62
I01
sg15
I00
sbsbsg11
(lp870
g844
ag859
ag768
asg844
g0
(g444
g2
Ntp871
Rp872
(dp873
g14
I00
sg32
I00
sg62
I01
sg15
I00
sbsg768
g0
(g444
g2
Ntp874
Rp875
(dp876
g14
I00
sg32
I00
sg62
I01
sg15
I00
sbsbsg795
g0
(g19
g20
(lp877
g836
aS'FwkReport'
p878
aS'FwkSummary'
p879
ag859
atp880
Rp881
(dp882
g14
I00
sg32
I00
sg15
I00
sg33
I1
sbsg15
I00
sg786
g0
(g98
g2
Ntp883
Rp884
(dp885
g14
I00
sg32
I00
sg15
I00
sg844
g0
(g444
g2
Ntp886
Rp887
(dp888
g14
I00
sg32
I00
sg62
I01
sg15
I00
sbsg11
(lp889
S'threshold'
p890
aS'output'
p891
ag844
asg890
g0
(g58
g2
Ntp892
Rp893
(dp894
g14
I00
sg32
I00
sg62
S'WARNING'
p895
sg15
I00
sbsg891
g0
(g58
g2
Ntp896
Rp897
(dp898
g14
I00
sg32
I00
sg62
g790
sg15
I00
sbsbsg788
g0
(g98
g2
Ntp899
Rp900
(dp901
g14
I00
sg32
I00
sg15
I00
sg11
(lp902
sbsg76
I01
sg790
g0
(g98
g2
Ntp903
Rp904
(dp905
g14
I00
sg32
I00
sS'noTimeStamps'
p906
g0
(g444
g2
Ntp907
Rp908
(dp909
g14
I00
sg32
I00
sg62
I00
sg15
I00
sbsg878
g0
(g98
g2
Ntp910
Rp911
(dp912
g14
I00
sg32
I00
sg15
I01
sS'reportEvery'
p913
g0
(g542
g2
Ntp914
Rp915
(dp916
g14
I00
sg32
I00
sg62
I1000
sg15
I01
sbsg831
g0
(g542
g2
Ntp917
Rp918
(dp919
g14
I00
sg32
I00
sg62
I10000000
sg15
I00
sbsg11
(lp920
g913
ag844
ag831
asg844
g0
(g444
g2
Ntp921
Rp922
(dp923
g14
I00
sg32
I00
sg62
I01
sg15
I00
sbsbsg15
I00
sg788
g0
(g98
g2
Ntp924
Rp925
(dp926
g14
I00
sg32
I00
sg831
g0
(g542
g2
Ntp927
Rp928
(dp929
g14
I00
sg32
I00
sg62
I10000000
sg15
I00
sbsg15
I00
sg11
(lp930
g831
asbsg859
g0
(g98
g2
Ntp931
Rp932
(dp933
g14
I00
sg32
I00
sg15
I00
sg831
g0
(g542
g2
Ntp934
Rp935
(dp936
g14
I00
sg32
I00
sg62
I0
sg15
I00
sbsg11
(lp937
g844
ag831
asg844
g0
(g444
g2
Ntp938
Rp939
(dp940
g14
I00
sg32
I00
sg62
I01
sg15
I00
sbsbsS'INFO'
p941
g0
(g98
g2
Ntp942
Rp943
(dp944
g14
I00
sg32
I00
sg831
g0
(g542
g2
Ntp945
Rp946
(dp947
g14
I00
sg32
I00
sg62
I0
sg15
I00
sbsg15
I00
sg11
(lp948
g831
asbsg844
g0
(g444
g2
Ntp949
Rp950
(dp951
g14
I00
sg32
I00
sg62
I01
sg15
I00
sbsg836
g0
(g98
g2
Ntp952
Rp953
(dp954
g14
I00
sg32
I00
sg15
I00
sg831
g0
(g542
g2
Ntp955
Rp956
(dp957
g14
I00
sg32
I00
sg62
I0
sg15
I00
sbsg11
(lp958
g844
ag831
asg844
g0
(g444
g2
Ntp959
Rp960
(dp961
g14
I00
sg32
I00
sg62
I01
sg15
I00
sbsbsg879
g0
(g98
g2
Ntp962
Rp963
(dp964
g14
I00
sg32
I00
sg15
I00
sg913
g0
(g542
g2
Ntp965
Rp966
(dp967
g14
I00
sg32
I00
sg62
I1
sg15
I00
sbsg831
g0
(g542
g2
Ntp968
Rp969
(dp970
g14
I00
sg32
I00
sg62
I10000000
sg15
I00
sbsg11
(lp971
g913
ag844
ag831
asg844
g0
(g444
g2
Ntp972
Rp973
(dp974
g14
I00
sg32
I00
sg62
I01
sg15
I00
sbsbsg11
(lp975
g941
ag906
ag878
ag788
ag859
ag890
ag836
ag879
ag844
asg890
g0
(g58
g2
Ntp976
Rp977
(dp978
g14
I00
sg32
I00
sg62
g941
sg15
I00
sbsbsbsS'_Process__services'
p979
(dp980
g750
g752
sS'DQMStore'
p981
g0
(g70
g2
Ntp982
Rp983
(dp984
g11
(lp985
S'referenceFileName'
p986
aS'verbose'
p987
aS'collateHistograms'
p988
aS'enableMultiThread'
p989
aS'forceResetOnBeginLumi'
p990
aS'LSbasedMode'
p991
aS'verboseQT'
p992
asg14
I00
sg76
I01
sg987
g0
(g542
g2
Ntp993
Rp994
(dp995
g14
I00
sg32
I00
sg62
I0
sg15
I00
sbsg988
g0
(g444
g2
Ntp996
Rp997
(dp998
g14
I00
sg32
I00
sg62
I00
sg15
I00
sbsg986
g0
(g58
g2
Ntp999
Rp1000
(dp1001
g14
I00
sg32
I00
sg62
g90
sg15
I00
sbsg989
g0
(g444
g2
Ntp1002
Rp1003
(dp1004
g14
I00
sg32
I00
sg62
I00
sg15
I00
sbsg990
g0
(g444
g2
Ntp1005
Rp1006
(dp1007
g14
I00
sg32
I00
sg62
I00
sg15
I00
sbsg16
I10
sg991
g0
(g444
g2
Ntp1008
Rp1009
(dp1010
g14
I00
sg32
I00
sg62
I00
sg15
I00
sbsg17
g18
sg992
g0
(g542
g2
Ntp1011
Rp1012
(dp1013
g14
I00
sg32
I00
sg62
I0
sg15
I00
sbsg35
g981
sg15
I00
sbsg93
g95
sg69
g72
ssg981
g983
sS'CastorGeometryFromDBEP'
p1014
g0
(g7
g2
Ntp1015
Rp1016
(dp1017
g11
(lp1018
g443
asg14
I00
sg15
I00
sg16
I52
sg17
g18
sg34
g1014
sg443
g0
(g444
g2
Ntp1019
Rp1020
(dp1021
g14
I00
sg32
I01
sg62
I00
sg15
I00
sbsg35
g1014
sbsS'HFRecalParameterBlock'
p1022
g0
(g98
g2
Ntp1023
Rp1024
(dp1025
g14
I00
sg32
I01
sg15
I00
sS'HFdepthTwoParameterA'
p1026
g0
(cFWCore.ParameterSet.Types
vdouble
p1027
g20
(lp1028
F0.002861
aF0.004168
aF0.0064
aF0.008388
aF0.011601
aF0.014425
aF0.018633
aF0.023232
aF0.028274
aF0.035447
aF0.051579
aF0.086593
atp1029
Rp1030
(dp1031
g14
I00
sg32
I01
sg15
I00
sbsS'HFdepthOneParameterA'
p1032
g0
(g1027
g20
(lp1033
F0.004123
aF0.00602
aF0.008201
aF0.010489
aF0.013379
aF0.016997
aF0.021464
aF0.027371
aF0.034195
aF0.044807
aF0.058939
aF0.125497
atp1034
Rp1035
(dp1036
g14
I00
sg32
I01
sg15
I00
sbsS'HFdepthOneParameterB'
p1037
g0
(g1027
g20
(lp1038
F-4e-06
aF-2e-06
aF0.0
aF4e-06
aF1.5e-05
aF2.6e-05
aF6.3e-05
aF8.4e-05
aF0.00016
aF0.000107
aF0.000425
aF0.000209
atp1039
Rp1040
(dp1041
g14
I00
sg32
I01
sg15
I00
sbsS'HFdepthTwoParameterB'
p1042
g0
(g1027
g20
(lp1043
F-2e-06
aF-0.0
aF-7e-06
aF-6e-06
aF-2e-06
aF1e-06
aF1.9e-05
aF3.1e-05
aF6.7e-05
aF1.2e-05
aF0.000157
aF-3e-06
atp1044
Rp1045
(dp1046
g14
I00
sg32
I01
sg15
I00
sbsg11
(lp1047
g1032
ag1037
ag1042
ag1026
asg34
g1022
sbsS'trackerGeometryDB'
p1048
g0
(g7
g2
Ntp1049
Rp1050
(dp1051
g11
(lp1052
g86
aS'fromDDD'
p1053
ag443
aS'alignmentsLabel'
p1054
asg14
I00
sg86
g0
(g58
g2
Ntp1055
Rp1056
(dp1057
g14
I00
sg32
I01
sg62
g90
sg15
I00
sbsg15
I00
sg1054
g0
(g58
g2
Ntp1058
Rp1059
(dp1060
g14
I00
sg32
I01
sg62
g90
sg15
I00
sbsg17
g18
sg16
I52
sg34
g1048
sg1053
g0
(g444
g2
Ntp1061
Rp1062
(dp1063
g14
I00
sg32
I01
sg62
I00
sg15
I00
sbsg443
g0
(g444
g2
Ntp1064
Rp1065
(dp1066
g14
I00
sg32
I01
sg62
I01
sg15
I00
sbsg35
S'TrackerDigiGeometryESModule'
p1067
sbsS'eegeom'
p1068
g0
(g496
g2
Ntp1069
Rp1070
(dp1071
g11
(lp1072
S'iovIsRunNotTime'
p1073
aS'recordName'
p1074
aS'firstValid'
p1075
asg14
I00
sg15
I00
sg16
I6
sg1074
g0
(g58
g2
Ntp1076
Rp1077
(dp1078
g14
I00
sg32
I01
sg62
S'EcalMappingRcd'
p1079
sg15
I00
sbsg17
S'/cvmfs/cms.cern.ch/slc6_amd64_gcc630/cms/cmssw/CMSSW_9_4_10/python/Geometry/EcalMapping/EcalMappingRecord_cfi.py'
p1080
sg1075
g0
(cFWCore.ParameterSet.Types
vuint32
p1081
g20
(lp1082
I1
atp1083
Rp1084
(dp1085
g14
I00
sg32
I01
sg15
I00
sbsg34
g1068
sg1073
g0
(g444
g2
Ntp1086
Rp1087
(dp1088
g14
I00
sg32
I01
sg62
I01
sg15
I00
sbsg35
S'EmptyESSource'
p1089
sbsg727
g595
sS'_Process__vpsets'
p1090
(dp1091
sS'EcalTrigTowerConstituentsMapBuilder'
p1092
g0
(g7
g2
Ntp1093
Rp1094
(dp1095
g11
(lp1096
S'MapFile'
p1097
asg14
I00
sg15
I00
sg1097
g0
(g58
g2
Ntp1098
Rp1099
(dp1100
g14
I00
sg32
I00
sg62
S'Geometry/EcalMapping/data/EndCap_TTMap.txt'
p1101
sg15
I00
sbsg17
g18
sg16
I52
sg34
g1092
sg35
g1092
sbsS'siStripBackPlaneCorrectionDepESProducer'
p1102
g0
(g7
g2
Ntp1103
Rp1104
(dp1105
g11
(lp1106
S'LatencyRecord'
p1107
aS'BackPlaneCorrectionDeconvMode'
p1108
aS'BackPlaneCorrectionPeakMode'
p1109
asg14
I00
sg15
I00
sg16
I52
sg17
g18
sg1107
g0
(g98
g2
Ntp1110
Rp1111
(dp1112
g14
I00
sg32
I01
sg15
I00
sg57
g0
(g58
g2
Ntp1113
Rp1114
(dp1115
g14
I00
sg32
I00
sg62
g90
sg15
I00
sbsg470
g0
(g58
g2
Ntp1116
Rp1117
(dp1118
g14
I00
sg32
I01
sg62
S'SiStripLatencyRcd'
p1119
sg15
I00
sbsg11
(lp1120
g470
ag57
asbsg1109
g0
(g98
g2
Ntp1121
Rp1122
(dp1123
g14
I00
sg32
I01
sg15
I00
sg57
g0
(g58
g2
Ntp1124
Rp1125
(dp1126
g14
I00
sg32
I00
sg62
S'peak'
p1127
sg15
I00
sbsg470
g0
(g58
g2
Ntp1128
Rp1129
(dp1130
g14
I00
sg32
I01
sg62
S'SiStripBackPlaneCorrectionRcd'
p1131
sg15
I00
sbsg11
(lp1132
g470
ag57
asbsg34
g1102
sg1108
g0
(g98
g2
Ntp1133
Rp1134
(dp1135
g14
I00
sg32
I01
sg15
I00
sg57
g0
(g58
g2
Ntp1136
Rp1137
(dp1138
g14
I00
sg32
I00
sg62
S'deconvolution'
p1139
sg15
I00
sbsg470
g0
(g58
g2
Ntp1140
Rp1141
(dp1142
g14
I00
sg32
I01
sg62
g1131
sg15
I00
sbsg11
(lp1143
g470
ag57
asbsg35
S'SiStripBackPlaneCorrectionDepESProducer'
p1144
sbsS'_Process__esprefers'
p1145
(dp1146
S'es_prefer_hcalHardcode'
p1147
g0
(cFWCore.ParameterSet.Modules
ESPrefer
p1148
g2
Ntp1149
Rp1150
(dp1151
g11
(lp1152
sg14
I00
sg15
I00
sS'_targetLabel'
p1153
S'es_hardcode'
p1154
sg16
I88
sg17
g18
sg34
g1147
sg35
S'HcalHardcodeCalibrations'
p1155
sbssS'_Process__isStrict'
p1156
I00
sS'HepPDTESSource'
p1157
g0
(g496
g2
Ntp1158
Rp1159
(dp1160
g11
(lp1161
S'pdtFileName'
p1162
asg14
I00
sg1162
g0
(cFWCore.ParameterSet.Types
FileInPath
p1163
g2
Ntp1164
Rp1165
(dp1166
g14
I00
sg32
I01
sg62
S'SimGeneral/HepPDTESSource/data/pythiaparticle.tbl'
p1167
sg15
I00
sbsg15
I00
sg16
I4
sg17
S'/cvmfs/cms.cern.ch/slc6_amd64_gcc630/cms/cmssw/CMSSW_9_4_10/python/SimGeneral/HepPDTESSource/pythiapdt_cfi.py'
p1168
sg34
g1157
sg35
g1157
sbsS'_Process__outputmodules'
p1169
(dp1170
sS'_Process__analyzers'
p1171
(dp1172
g727
g595
ssS'idealForDigiTrackerGeometry'
p1173
g0
(g7
g2
Ntp1174
Rp1175
(dp1176
g11
(lp1177
g86
ag1053
ag443
ag1054
asg14
I00
sg86
g0
(g58
g2
Ntp1178
Rp1179
(dp1180
g14
I00
sg32
I01
sg62
S'idealForDigi'
p1181
sg15
I01
sbsg15
I01
sg1054
g0
(g58
g2
Ntp1182
Rp1183
(dp1184
g14
I00
sg32
I01
sg62
S'fakeForIdeal'
p1185
sg15
I01
sbsg17
S'/cvmfs/cms.cern.ch/slc6_amd64_gcc630/cms/cmssw/CMSSW_9_4_10/python/Geometry/TrackerGeometryBuilder/idealForDigiTrackerGeometryDB_cff.py'
p1186
sg16
I8
sg34
g1173
sg1053
g0
(g444
g2
Ntp1187
Rp1188
(dp1189
g14
I00
sg32
I01
sg62
I00
sg15
I00
sbsg443
g0
(g444
g2
Ntp1190
Rp1191
(dp1192
g14
I00
sg32
I01
sg62
I00
sg15
I01
sbsg35
g1067
sbsS'_Process__looper'
p1193
NsS'_Process__tasks'
p1194
(dp1195
sS'_Process__paths'
p1196
g0
(g573
g574
(dp1197
g581
g584
stp1198
Rp1199
(dp1200
g579
(lp1201
g581
asbsS'MuonNumberingInitialization'
p1202
g0
(g7
g2
Ntp1203
Rp1204
(dp1205
g11
(lp1206
sg14
I00
sg15
I00
sg16
I52
sg17
g18
sg34
g1202
sg35
g1202
sbsS'options'
p1207
g0
(g98
g2
Ntp1208
Rp1209
(dp1210
g14
I00
sg32
I00
sg15
I00
sS'wantSummary'
p1211
g0
(g444
g2
Ntp1212
Rp1213
(dp1214
g14
I00
sg32
I00
sg62
I01
sg15
I00
sbsg11
(lp1215
g1211
asg34
g1207
sbsS'DTGeometryESModule'
p1216
g0
(g7
g2
Ntp1217
Rp1218
(dp1219
g11
(lp1220
g86
ag1053
ag443
ag1054
asg14
I00
sg86
g0
(g58
g2
Ntp1221
Rp1222
(dp1223
g14
I00
sg32
I01
sg62
g90
sg15
I00
sbsg15
I00
sg1054
g0
(g58
g2
Ntp1224
Rp1225
(dp1226
g14
I00
sg32
I01
sg62
g90
sg15
I00
sbsg17
g18
sg16
I52
sg34
g1216
sg1053
g0
(g444
g2
Ntp1227
Rp1228
(dp1229
g14
I00
sg32
I01
sg62
I00
sg15
I00
sbsg443
g0
(g444
g2
Ntp1230
Rp1231
(dp1232
g14
I00
sg32
I01
sg62
I01
sg15
I00
sbsg35
g1216
sbsS'VolumeBasedMagneticFieldESProducer'
p1233
g0
(g7
g2
Ntp1234
Rp1235
(dp1236
g11
(lp1237
S'valueOverride'
p1238
aS'debugBuilder'
p1239
ag57
asg14
I00
sg1238
g0
(g542
g2
Ntp1240
Rp1241
(dp1242
g14
I00
sg32
I01
sg62
I18268
sg15
I01
sbsg16
I52
sg17
g18
sg57
g0
(g58
g2
Ntp1243
Rp1244
(dp1245
g14
I00
sg32
I00
sg62
g90
sg15
I00
sbsg1239
g0
(g444
g2
Ntp1246
Rp1247
(dp1248
g14
I00
sg32
I00
sg62
I00
sg15
I00
sbsg34
g1233
sg35
S'VolumeBasedMagneticFieldESProducerFromDB'
p1249
sg15
I01
sbsS'CaloTopologyBuilder'
p1250
g0
(g7
g2
Ntp1251
Rp1252
(dp1253
g11
(lp1254
sg14
I00
sg15
I00
sg16
I52
sg17
g18
sg34
g1250
sg35
g1250
sbsS'SiStripRecHitMatcherESProducer'
p1255
g0
(g7
g2
Ntp1256
Rp1257
(dp1258
g11
(lp1259
S'PreFilter'
p1260
aS'ComponentName'
p1261
aS'NSigmaInside'
p1262
asg14
I00
sg15
I00
sg17
g18
sg1261
g0
(g58
g2
Ntp1263
Rp1264
(dp1265
g14
I00
sg32
I01
sg62
S'StandardMatcher'
p1266
sg15
I00
sbsg1260
g0
(g444
g2
Ntp1267
Rp1268
(dp1269
g14
I00
sg32
I01
sg62
I00
sg15
I00
sbsg16
I52
sg1262
g0
(cFWCore.ParameterSet.Types
double
p1270
g2
Ntp1271
Rp1272
(dp1273
g14
I00
sg32
I01
sg62
F3.0
sg15
I00
sbsg34
g1255
sg35
g1255
sbsS'_Process__psets'
p1274
(dp1275
S'maxEvents'
p1276
g0
(g98
g2
Ntp1277
Rp1278
(dp1279
g14
I00
sg32
I00
sg15
I00
sg11
(lp1280
S'input'
p1281
asg34
g1276
sg1281
g0
(g542
g2
Ntp1282
Rp1283
(dp1284
g14
I00
sg32
I00
sg62
I-1
sg15
I00
sbsbsg1022
g1024
sg1207
g1209
ssS'_Process__essources'
p1285
(dp1286
g1157
g1159
sg1154
g0
(g496
g2
Ntp1287
Rp1288
(dp1289
g14
I00
sg16
I155
sS'useHEUpgrade'
p1290
g0
(g444
g2
Ntp1291
Rp1292
(dp1293
g14
I00
sg32
I01
sg62
I00
sg15
I00
sbsS'HBRecalibration'
p1294
g0
(g444
g2
Ntp1295
Rp1296
(dp1297
g14
I00
sg32
I01
sg62
I00
sg15
I00
sbsS'useLayer0Weight'
p1298
g0
(g444
g2
Ntp1299
Rp1300
(dp1301
g14
I00
sg32
I01
sg62
I00
sg15
I00
sbsS'HEmeanenergies'
p1302
g0
(g1163
g2
Ntp1303
Rp1304
(dp1305
g14
I00
sg32
I01
sg62
S'CalibCalorimetry/HcalPlugins/data/meanenergiesHE.txt'
p1306
sg15
I00
sbsg1022
g1024
sS'heUpgrade'
p1307
g0
(g98
g2
Ntp1308
Rp1309
(dp1310
g14
I00
sg32
I01
sS'qieType'
p1311
g0
(g542
g2
Ntp1312
Rp1313
(dp1314
g14
I00
sg32
I01
sg62
I2
sg15
I00
sbsg15
I00
sS'pedestalWidth'
p1315
g0
(g1270
g2
Ntp1316
Rp1317
(dp1318
g14
I00
sg32
I01
sg62
F1.5
sg15
I00
sbsS'recoShape'
p1319
g0
(g542
g2
Ntp1320
Rp1321
(dp1322
g14
I00
sg32
I01
sg62
I203
sg15
I00
sbsS'darkCurrent'
p1323
g0
(g1027
g20
(lp1324
F0.01
aF0.015
atp1325
Rp1326
(dp1327
g14
I00
sg32
I01
sg15
I00
sbsS'qieOffset'
p1328
g0
(g1027
g20
(lp1329
F0.0
aF0.0
aF0.0
aF0.0
atp1330
Rp1331
(dp1332
g14
I00
sg32
I01
sg15
I00
sbsS'qieSlope'
p1333
g0
(g1027
g20
(lp1334
F0.05376
aF0.05376
aF0.05376
aF0.05376
atp1335
Rp1336
(dp1337
g14
I00
sg32
I01
sg15
I00
sbsS'radiationDamage'
p1338
g0
(g98
g2
Ntp1339
Rp1340
(dp1341
g14
I00
sg32
I01
sS'temperatureNew'
p1342
g0
(g1270
g2
Ntp1343
Rp1344
(dp1345
g14
I00
sg32
I01
sg62
I5
sg15
I00
sbsg15
I00
sS'depVsNeutrons'
p1346
g0
(g1027
g20
(lp1347
F5.69e-11
aF7.9e-11
atp1348
Rp1349
(dp1350
g14
I00
sg32
I01
sg15
I00
sbsS'temperatureBase'
p1351
g0
(g1270
g2
Ntp1352
Rp1353
(dp1354
g14
I00
sg32
I01
sg62
I20
sg15
I00
sbsS'depVsTemp'
p1355
g0
(g1270
g2
Ntp1356
Rp1357
(dp1358
g14
I00
sg32
I01
sg62
F0.0631
sg15
I00
sbsS'intlumiOffset'
p1359
g0
(g1270
g2
Ntp1360
Rp1361
(dp1362
g14
I00
sg32
I01
sg62
I75
sg15
I00
sbsg11
(lp1363
g1342
ag1346
ag1351
ag1355
ag1359
aS'intlumiToNeutrons'
p1364
asg1364
g0
(g1270
g2
Ntp1365
Rp1366
(dp1367
g14
I00
sg32
I01
sg62
F29200000.0
sg15
I00
sbsbsS'doRadiationDamage'
p1368
g0
(g444
g2
Ntp1369
Rp1370
(dp1371
g14
I00
sg32
I01
sg62
I01
sg15
I00
sbsg11
(lp1372
g1311
ag1315
ag1319
aS'photoelectronsToAnalog'
p1373
ag1328
ag1333
ag1338
ag1368
ag1323
aS'pedestal'
p1374
aS'mcShape'
p1375
aS'gainWidth'
p1376
aS'gain'
p1377
asg1373
g0
(g1270
g2
Ntp1378
Rp1379
(dp1380
g14
I00
sg32
I01
sg62
F44.0
sg15
I00
sbsg1374
g0
(g1270
g2
Ntp1381
Rp1382
(dp1383
g14
I00
sg32
I01
sg62
F17.3
sg15
I00
sbsg1375
g0
(g542
g2
Ntp1384
Rp1385
(dp1386
g14
I00
sg32
I01
sg62
I203
sg15
I00
sbsg1376
g0
(g1027
g20
(lp1387
I0
atp1388
Rp1389
(dp1390
g14
I00
sg32
I01
sg15
I00
sbsg1377
g0
(g1027
g20
(lp1391
F0.0004393673110720562
atp1392
Rp1393
(dp1394
g14
I00
sg32
I01
sg15
I00
sbsbsg11
(lp1395
g507
ag1294
ag1298
ag1302
ag1022
ag1307
aS'useHOUpgrade'
p1396
aS'killHE'
p1397
aS'useHBUpgrade'
p1398
aS'hbUpgrade'
p1399
aS'testHEPlan1'
p1400
aS'iLumi'
p1401
aS'testHFQIE10'
p1402
aS'HBmeanenergies'
p1403
ag1290
aS'GainWidthsForTrigPrims'
p1404
aS'HBreCalibCutoff'
p1405
aS'HFRecalibration'
p1406
aS'ho'
p1407
aS'hb'
p1408
aS'hf'
p1409
aS'he'
p1410
aS'HERecalibration'
p1411
aS'useHFUpgrade'
p1412
aS'HEreCalibCutoff'
p1413
aS'SiPMCharacteristics'
p1414
aS'hfUpgrade'
p1415
asg17
S'/cvmfs/cms.cern.ch/slc6_amd64_gcc630/cms/cmssw/CMSSW_9_4_10/python/CalibCalorimetry/HcalPlugins/Hcal_Conditions_forGlobalTag_cff.py'
p1416
sg1396
g0
(g444
g2
Ntp1417
Rp1418
(dp1419
g14
I00
sg32
I01
sg62
I01
sg15
I00
sbsg1397
g0
(g444
g2
Ntp1420
Rp1421
(dp1422
g14
I00
sg32
I01
sg62
I00
sg15
I00
sbsg1398
g0
(g444
g2
Ntp1423
Rp1424
(dp1425
g14
I00
sg32
I01
sg62
I00
sg15
I00
sbsg1399
g0
(g98
g2
Ntp1426
Rp1427
(dp1428
g14
I00
sg32
I01
sg1311
g0
(g542
g2
Ntp1429
Rp1430
(dp1431
g14
I00
sg32
I01
sg62
I2
sg15
I00
sbsg15
I00
sg1315
g0
(g1270
g2
Ntp1432
Rp1433
(dp1434
g14
I00
sg32
I01
sg62
F1.5
sg15
I00
sbsg1319
g0
(g542
g2
Ntp1435
Rp1436
(dp1437
g14
I00
sg32
I01
sg62
I203
sg15
I00
sbsg1323
g0
(g1027
g20
(lp1438
F0.01
aF0.015
atp1439
Rp1440
(dp1441
g14
I00
sg32
I01
sg15
I00
sbsg1328
g0
(g1027
g20
(lp1442
F0.0
aF0.0
aF0.0
aF0.0
atp1443
Rp1444
(dp1445
g14
I00
sg32
I01
sg15
I00
sbsg1333
g0
(g1027
g20
(lp1446
F0.05376
aF0.05376
aF0.05376
aF0.05376
atp1447
Rp1448
(dp1449
g14
I00
sg32
I01
sg15
I00
sbsg1338
g0
(g98
g2
Ntp1450
Rp1451
(dp1452
g14
I00
sg32
I01
sg1342
g0
(g1270
g2
Ntp1453
Rp1454
(dp1455
g14
I00
sg32
I01
sg62
I-5
sg15
I00
sbsg15
I00
sg1346
g0
(g1027
g20
(lp1456
F5.69e-11
aF7.9e-11
atp1457
Rp1458
(dp1459
g14
I00
sg32
I01
sg15
I00
sbsg1351
g0
(g1270
g2
Ntp1460
Rp1461
(dp1462
g14
I00
sg32
I01
sg62
I20
sg15
I00
sbsg1355
g0
(g1270
g2
Ntp1463
Rp1464
(dp1465
g14
I00
sg32
I01
sg62
F0.0631
sg15
I00
sbsg1359
g0
(g1270
g2
Ntp1466
Rp1467
(dp1468
g14
I00
sg32
I01
sg62
I150
sg15
I00
sbsg11
(lp1469
g1342
ag1346
ag1351
ag1355
ag1359
ag1364
asg1364
g0
(g1270
g2
Ntp1470
Rp1471
(dp1472
g14
I00
sg32
I01
sg62
F367000000.0
sg15
I00
sbsbsg1368
g0
(g444
g2
Ntp1473
Rp1474
(dp1475
g14
I00
sg32
I01
sg62
I01
sg15
I00
sbsg11
(lp1476
g1311
ag1315
ag1319
ag1373
ag1328
ag1333
ag1338
ag1368
ag1323
ag1374
ag1375
ag1376
ag1377
asg1373
g0
(g1270
g2
Ntp1477
Rp1478
(dp1479
g14
I00
sg32
I01
sg62
F44.0
sg15
I00
sbsg1374
g0
(g1270
g2
Ntp1480
Rp1481
(dp1482
g14
I00
sg32
I01
sg62
F17.3
sg15
I00
sbsg1375
g0
(g542
g2
Ntp1483
Rp1484
(dp1485
g14
I00
sg32
I01
sg62
I203
sg15
I00
sbsg1376
g0
(g1027
g20
(lp1486
I0
atp1487
Rp1488
(dp1489
g14
I00
sg32
I01
sg15
I00
sbsg1377
g0
(g1027
g20
(lp1490
F0.0004393673110720562
atp1491
Rp1492
(dp1493
g14
I00
sg32
I01
sg15
I00
sbsbsg35
g1155
sg1400
g0
(g444
g2
Ntp1494
Rp1495
(dp1496
g14
I00
sg32
I01
sg62
I00
sg15
I00
sbsg1401
g0
(g1270
g2
Ntp1497
Rp1498
(dp1499
g14
I00
sg32
I01
sg62
F-1.0
sg15
I00
sbsg1402
g0
(g444
g2
Ntp1500
Rp1501
(dp1502
g14
I00
sg32
I01
sg62
I00
sg15
I00
sbsg1403
g0
(g1163
g2
Ntp1503
Rp1504
(dp1505
g14
I00
sg32
I01
sg62
S'CalibCalorimetry/HcalPlugins/data/meanenergiesHB.txt'
p1506
sg15
I00
sbsg507
g0
(g19
g20
(lp1507
S'GainWidths'
p1508
atp1509
Rp1510
(dp1511
g14
I00
sg32
I00
sg15
I00
sg33
I1
sbsg1404
g0
(g444
g2
Ntp1512
Rp1513
(dp1514
g14
I00
sg32
I01
sg62
I00
sg15
I00
sbsg1405
g0
(g1270
g2
Ntp1515
Rp1516
(dp1517
g14
I00
sg32
I01
sg62
F20.0
sg15
I00
sbsg1406
g0
(g444
g2
Ntp1518
Rp1519
(dp1520
g14
I00
sg32
I01
sg62
I00
sg15
I00
sbsg1407
g0
(g98
g2
Ntp1521
Rp1522
(dp1523
g14
I00
sg32
I01
sg1311
g0
(g542
g2
Ntp1524
Rp1525
(dp1526
g14
I00
sg32
I01
sg62
I0
sg15
I00
sbsg15
I00
sg1315
g0
(g1270
g2
Ntp1527
Rp1528
(dp1529
g14
I00
sg32
I01
sg62
F0.6285
sg15
I00
sbsg1319
g0
(g542
g2
Ntp1530
Rp1531
(dp1532
g14
I00
sg32
I01
sg62
I201
sg15
I00
sbsg1323
g0
(g1027
g20
(lp1533
F0.0
atp1534
Rp1535
(dp1536
g14
I00
sg32
I01
sg15
I00
sbsg1328
g0
(g1027
g20
(lp1537
F-0.44
aF1.4
aF7.1
aF38.5
atp1538
Rp1539
(dp1540
g14
I00
sg32
I01
sg15
I00
sbsg1333
g0
(g1027
g20
(lp1541
F0.907
aF0.915
aF0.92
aF0.921
atp1542
Rp1543
(dp1544
g14
I00
sg32
I01
sg15
I00
sbsg1377
g0
(g1027
g20
(lp1545
F0.006
aF0.0087
atp1546
Rp1547
(dp1548
g14
I00
sg32
I01
sg15
I00
sbsg1368
g0
(g444
g2
Ntp1549
Rp1550
(dp1551
g14
I00
sg32
I01
sg62
I00
sg15
I00
sbsg11
(lp1552
g1311
ag1315
ag1319
ag1373
ag1328
ag1333
ag1377
ag1368
ag1323
ag1374
ag1375
ag1376
asg1373
g0
(g1270
g2
Ntp1553
Rp1554
(dp1555
g14
I00
sg32
I01
sg62
F4.0
sg15
I00
sbsg1374
g0
(g1270
g2
Ntp1556
Rp1557
(dp1558
g14
I00
sg32
I01
sg62
F12.06
sg15
I00
sbsg1375
g0
(g542
g2
Ntp1559
Rp1560
(dp1561
g14
I00
sg32
I01
sg62
I201
sg15
I00
sbsg1376
g0
(g1027
g20
(lp1562
F0.0
aF0.0
atp1563
Rp1564
(dp1565
g14
I00
sg32
I01
sg15
I00
sbsbsg1408
g0
(g98
g2
Ntp1566
Rp1567
(dp1568
g14
I00
sg32
I01
sg1311
g0
(g542
g2
Ntp1569
Rp1570
(dp1571
g14
I00
sg32
I01
sg62
I0
sg15
I00
sbsg15
I00
sg1315
g0
(g1270
g2
Ntp1572
Rp1573
(dp1574
g14
I00
sg32
I01
sg62
F0.809
sg15
I00
sbsg1319
g0
(g542
g2
Ntp1575
Rp1576
(dp1577
g14
I00
sg32
I01
sg62
I105
sg15
I00
sbsg1323
g0
(g1027
g20
(lp1578
F0.0
atp1579
Rp1580
(dp1581
g14
I00
sg32
I01
sg15
I00
sbsg1328
g0
(g1027
g20
(lp1582
F-0.49
aF1.8
aF7.2
aF37.9
atp1583
Rp1584
(dp1585
g14
I00
sg32
I01
sg15
I00
sbsg1333
g0
(g1027
g20
(lp1586
F0.912
aF0.917
aF0.922
aF0.923
atp1587
Rp1588
(dp1589
g14
I00
sg32
I01
sg15
I00
sbsg1377
g0
(g1027
g20
(lp1590
F0.19
atp1591
Rp1592
(dp1593
g14
I00
sg32
I01
sg15
I00
sbsg1368
g0
(g444
g2
Ntp1594
Rp1595
(dp1596
g14
I00
sg32
I01
sg62
I00
sg15
I00
sbsg11
(lp1597
g1311
ag1315
ag1319
ag1373
ag1328
ag1333
ag1377
ag1368
ag1323
ag1374
ag1375
ag1376
asg1373
g0
(g1270
g2
Ntp1598
Rp1599
(dp1600
g14
I00
sg32
I01
sg62
F0.3305
sg15
I00
sbsg1374
g0
(g1270
g2
Ntp1601
Rp1602
(dp1603
g14
I00
sg32
I01
sg62
F3.285
sg15
I00
sbsg1375
g0
(g542
g2
Ntp1604
Rp1605
(dp1606
g14
I00
sg32
I01
sg62
I125
sg15
I00
sbsg1376
g0
(g1027
g20
(lp1607
F0.0
atp1608
Rp1609
(dp1610
g14
I00
sg32
I01
sg15
I00
sbsbsg1409
g0
(g98
g2
Ntp1611
Rp1612
(dp1613
g14
I00
sg32
I01
sg1311
g0
(g542
g2
Ntp1614
Rp1615
(dp1616
g14
I00
sg32
I01
sg62
I0
sg15
I00
sbsg15
I00
sg1315
g0
(g1270
g2
Ntp1617
Rp1618
(dp1619
g14
I00
sg32
I01
sg62
F2.516
sg15
I00
sbsg1319
g0
(g542
g2
Ntp1620
Rp1621
(dp1622
g14
I00
sg32
I01
sg62
I301
sg15
I00
sbsg1323
g0
(g1027
g20
(lp1623
F0.0
atp1624
Rp1625
(dp1626
g14
I00
sg32
I01
sg15
I00
sbsg1328
g0
(g1027
g20
(lp1627
F-0.87
aF1.4
aF7.8
aF-29.6
atp1628
Rp1629
(dp1630
g14
I00
sg32
I01
sg15
I00
sbsg1333
g0
(g1027
g20
(lp1631
F0.359
aF0.358
aF0.36
aF0.367
atp1632
Rp1633
(dp1634
g14
I00
sg32
I01
sg15
I00
sbsg1377
g0
(g1027
g20
(lp1635
F0.14
aF0.135
atp1636
Rp1637
(dp1638
g14
I00
sg32
I01
sg15
I00
sbsg1368
g0
(g444
g2
Ntp1639
Rp1640
(dp1641
g14
I00
sg32
I01
sg62
I00
sg15
I00
sbsg11
(lp1642
g1311
ag1315
ag1319
ag1373
ag1328
ag1333
ag1377
ag1368
ag1323
ag1374
ag1375
ag1376
asg1373
g0
(g1270
g2
Ntp1643
Rp1644
(dp1645
g14
I00
sg32
I01
sg62
F0.0
sg15
I00
sbsg1374
g0
(g1270
g2
Ntp1646
Rp1647
(dp1648
g14
I00
sg32
I01
sg62
F9.354
sg15
I00
sbsg1375
g0
(g542
g2
Ntp1649
Rp1650
(dp1651
g14
I00
sg32
I01
sg62
I301
sg15
I00
sbsg1376
g0
(g1027
g20
(lp1652
F0.0
aF0.0
atp1653
Rp1654
(dp1655
g14
I00
sg32
I01
sg15
I00
sbsbsg1410
g0
(g98
g2
Ntp1656
Rp1657
(dp1658
g14
I00
sg32
I01
sg1311
g0
(g542
g2
Ntp1659
Rp1660
(dp1661
g14
I00
sg32
I01
sg62
I0
sg15
I00
sbsg15
I00
sg1315
g0
(g1270
g2
Ntp1662
Rp1663
(dp1664
g14
I00
sg32
I01
sg62
F0.9698
sg15
I00
sbsg1319
g0
(g542
g2
Ntp1665
Rp1666
(dp1667
g14
I00
sg32
I01
sg62
I105
sg15
I00
sbsg1323
g0
(g1027
g20
(lp1668
F0.0
atp1669
Rp1670
(dp1671
g14
I00
sg32
I01
sg15
I00
sbsg1328
g0
(g1027
g20
(lp1672
F-0.38
aF2.0
aF7.6
aF39.6
atp1673
Rp1674
(dp1675
g14
I00
sg32
I01
sg15
I00
sbsg1333
g0
(g1027
g20
(lp1676
F0.912
aF0.916
aF0.92
aF0.922
atp1677
Rp1678
(dp1679
g14
I00
sg32
I01
sg15
I00
sbsg1377
g0
(g1027
g20
(lp1680
F0.23
atp1681
Rp1682
(dp1683
g14
I00
sg32
I01
sg15
I00
sbsg1368
g0
(g444
g2
Ntp1684
Rp1685
(dp1686
g14
I00
sg32
I01
sg62
I00
sg15
I00
sbsg11
(lp1687
g1311
ag1315
ag1319
ag1373
ag1328
ag1333
ag1377
ag1368
ag1323
ag1374
ag1375
ag1376
asg1373
g0
(g1270
g2
Ntp1688
Rp1689
(dp1690
g14
I00
sg32
I01
sg62
F0.3305
sg15
I00
sbsg1374
g0
(g1270
g2
Ntp1691
Rp1692
(dp1693
g14
I00
sg32
I01
sg62
F3.163
sg15
I00
sbsg1375
g0
(g542
g2
Ntp1694
Rp1695
(dp1696
g14
I00
sg32
I01
sg62
I125
sg15
I00
sbsg1376
g0
(g1027
g20
(lp1697
I0
atp1698
Rp1699
(dp1700
g14
I00
sg32
I01
sg15
I00
sbsbsg15
I00
sg1411
g0
(g444
g2
Ntp1701
Rp1702
(dp1703
g14
I00
sg32
I01
sg62
I00
sg15
I00
sbsg1412
g0
(g444
g2
Ntp1704
Rp1705
(dp1706
g14
I00
sg32
I01
sg62
I00
sg15
I00
sbsg1413
g0
(g1270
g2
Ntp1707
Rp1708
(dp1709
g14
I00
sg32
I01
sg62
F20.0
sg15
I00
sbsg1414
g0
(g465
g20
(lp1710
g0
(g98
g2
Ntp1711
Rp1712
(dp1713
g14
I00
sg32
I01
sg15
I00
sS'crosstalk'
p1714
g0
(g1270
g2
Ntp1715
Rp1716
(dp1717
g14
I00
sg32
I01
sg62
F0.0
sg15
I00
sbsS'nonlin1'
p1718
g0
(g1270
g2
Ntp1719
Rp1720
(dp1721
g14
I00
sg32
I01
sg62
F1.0
sg15
I00
sbsS'nonlin3'
p1722
g0
(g1270
g2
Ntp1723
Rp1724
(dp1725
g14
I00
sg32
I01
sg62
F0.0
sg15
I00
sbsS'nonlin2'
p1726
g0
(g1270
g2
Ntp1727
Rp1728
(dp1729
g14
I00
sg32
I01
sg62
F0.0
sg15
I00
sbsg11
(lp1730
g1718
ag1722
ag1726
aS'pixels'
p1731
ag1714
asg1731
g0
(g542
g2
Ntp1732
Rp1733
(dp1734
g14
I00
sg32
I01
sg62
I36000
sg15
I00
sbsbag0
(g98
g2
Ntp1735
Rp1736
(dp1737
g14
I00
sg32
I01
sg15
I00
sg1714
g0
(g1270
g2
Ntp1738
Rp1739
(dp1740
g14
I00
sg32
I01
sg62
F0.0
sg15
I00
sbsg1718
g0
(g1270
g2
Ntp1741
Rp1742
(dp1743
g14
I00
sg32
I01
sg62
F1.0
sg15
I00
sbsg1722
g0
(g1270
g2
Ntp1744
Rp1745
(dp1746
g14
I00
sg32
I01
sg62
F0.0
sg15
I00
sbsg1726
g0
(g1270
g2
Ntp1747
Rp1748
(dp1749
g14
I00
sg32
I01
sg62
F0.0
sg15
I00
sbsg11
(lp1750
g1718
ag1722
ag1726
ag1731
ag1714
asg1731
g0
(g542
g2
Ntp1751
Rp1752
(dp1753
g14
I00
sg32
I01
sg62
I2500
sg15
I00
sbsbag0
(g98
g2
Ntp1754
Rp1755
(dp1756
g14
I00
sg32
I01
sg15
I00
sg1714
g0
(g1270
g2
Ntp1757
Rp1758
(dp1759
g14
I00
sg32
I01
sg62
F0.17
sg15
I00
sbsg1718
g0
(g1270
g2
Ntp1760
Rp1761
(dp1762
g14
I00
sg32
I01
sg62
F1.00985
sg15
I00
sbsg1722
g0
(g1270
g2
Ntp1763
Rp1764
(dp1765
g14
I00
sg32
I01
sg62
F2.86282e-10
sg15
I00
sbsg1726
g0
(g1270
g2
Ntp1766
Rp1767
(dp1768
g14
I00
sg32
I01
sg62
F7.84089e-06
sg15
I00
sbsg11
(lp1769
g1718
ag1722
ag1726
ag1731
ag1714
asg1731
g0
(g542
g2
Ntp1770
Rp1771
(dp1772
g14
I00
sg32
I01
sg62
I27370
sg15
I00
sbsbag0
(g98
g2
Ntp1773
Rp1774
(dp1775
g14
I00
sg32
I01
sg15
I00
sg1714
g0
(g1270
g2
Ntp1776
Rp1777
(dp1778
g14
I00
sg32
I01
sg62
F0.196
sg15
I00
sbsg1718
g0
(g1270
g2
Ntp1779
Rp1780
(dp1781
g14
I00
sg32
I01
sg62
F1.00546
sg15
I00
sbsg1722
g0
(g1270
g2
Ntp1782
Rp1783
(dp1784
g14
I00
sg32
I01
sg62
F1.27011e-10
sg15
I00
sbsg1726
g0
(g1270
g2
Ntp1785
Rp1786
(dp1787
g14
I00
sg32
I01
sg62
F6.40239e-06
sg15
I00
sbsg11
(lp1788
g1718
ag1722
ag1726
ag1731
ag1714
asg1731
g0
(g542
g2
Ntp1789
Rp1790
(dp1791
g14
I00
sg32
I01
sg62
I38018
sg15
I00
sbsbag0
(g98
g2
Ntp1792
Rp1793
(dp1794
g14
I00
sg32
I01
sg15
I00
sg1714
g0
(g1270
g2
Ntp1795
Rp1796
(dp1797
g14
I00
sg32
I01
sg62
F0.17
sg15
I00
sbsg1718
g0
(g1270
g2
Ntp1798
Rp1799
(dp1800
g14
I00
sg32
I01
sg62
F1.00985
sg15
I00
sbsg1722
g0
(g1270
g2
Ntp1801
Rp1802
(dp1803
g14
I00
sg32
I01
sg62
F2.86282e-10
sg15
I00
sbsg1726
g0
(g1270
g2
Ntp1804
Rp1805
(dp1806
g14
I00
sg32
I01
sg62
F7.84089e-06
sg15
I00
sbsg11
(lp1807
g1718
ag1722
ag1726
ag1731
ag1714
asg1731
g0
(g542
g2
Ntp1808
Rp1809
(dp1810
g14
I00
sg32
I01
sg62
I27370
sg15
I00
sbsbag0
(g98
g2
Ntp1811
Rp1812
(dp1813
g14
I00
sg32
I01
sg15
I00
sg1714
g0
(g1270
g2
Ntp1814
Rp1815
(dp1816
g14
I00
sg32
I01
sg62
F0.196
sg15
I00
sbsg1718
g0
(g1270
g2
Ntp1817
Rp1818
(dp1819
g14
I00
sg32
I01
sg62
F1.00546
sg15
I00
sbsg1722
g0
(g1270
g2
Ntp1820
Rp1821
(dp1822
g14
I00
sg32
I01
sg62
F1.27011e-10
sg15
I00
sbsg1726
g0
(g1270
g2
Ntp1823
Rp1824
(dp1825
g14
I00
sg32
I01
sg62
F6.40239e-06
sg15
I00
sbsg11
(lp1826
g1718
ag1722
ag1726
ag1731
ag1714
asg1731
g0
(g542
g2
Ntp1827
Rp1828
(dp1829
g14
I00
sg32
I01
sg62
I38018
sg15
I00
sbsbag0
(g98
g2
Ntp1830
Rp1831
(dp1832
g14
I00
sg32
I01
sg15
I00
sg1714
g0
(g1270
g2
Ntp1833
Rp1834
(dp1835
g14
I00
sg32
I01
sg62
F0.0
sg15
I00
sbsg1718
g0
(g1270
g2
Ntp1836
Rp1837
(dp1838
g14
I00
sg32
I01
sg62
F1.0
sg15
I00
sbsg1722
g0
(g1270
g2
Ntp1839
Rp1840
(dp1841
g14
I00
sg32
I01
sg62
F0.0
sg15
I00
sbsg1726
g0
(g1270
g2
Ntp1842
Rp1843
(dp1844
g14
I00
sg32
I01
sg62
F0.0
sg15
I00
sbsg11
(lp1845
g1718
ag1722
ag1726
ag1731
ag1714
asg1731
g0
(g542
g2
Ntp1846
Rp1847
(dp1848
g14
I00
sg32
I01
sg62
I0
sg15
I00
sbsbatp1849
Rp1850
(dp1851
g14
I00
sg32
I01
sg15
I00
sg33
I1
sbsg34
g1154
sg1415
g0
(g98
g2
Ntp1852
Rp1853
(dp1854
g14
I00
sg32
I01
sg1311
g0
(g542
g2
Ntp1855
Rp1856
(dp1857
g14
I00
sg32
I01
sg62
I1
sg15
I00
sbsg15
I00
sg1315
g0
(g1270
g2
Ntp1858
Rp1859
(dp1860
g14
I00
sg32
I01
sg62
F3.33
sg15
I00
sbsg1319
g0
(g542
g2
Ntp1861
Rp1862
(dp1863
g14
I00
sg32
I01
sg62
I301
sg15
I00
sbsg1323
g0
(g1027
g20
(lp1864
F0.0
atp1865
Rp1866
(dp1867
g14
I00
sg32
I01
sg15
I00
sbsg1328
g0
(g1027
g20
(lp1868
F0.0697
aF-0.7405
aF12.38
aF-671.9
atp1869
Rp1870
(dp1871
g14
I00
sg32
I01
sg15
I00
sbsg1333
g0
(g1027
g20
(lp1872
F0.297
aF0.298
aF0.298
aF0.313
atp1873
Rp1874
(dp1875
g14
I00
sg32
I01
sg15
I00
sbsg1377
g0
(g1027
g20
(lp1876
F0.14
aF0.135
atp1877
Rp1878
(dp1879
g14
I00
sg32
I01
sg15
I00
sbsg1368
g0
(g444
g2
Ntp1880
Rp1881
(dp1882
g14
I00
sg32
I01
sg62
I00
sg15
I00
sbsg11
(lp1883
g1311
ag1315
ag1319
ag1373
ag1328
ag1333
ag1377
ag1368
ag1323
ag1374
ag1375
ag1376
asg1373
g0
(g1270
g2
Ntp1884
Rp1885
(dp1886
g14
I00
sg32
I01
sg62
F0.0
sg15
I00
sbsg1374
g0
(g1270
g2
Ntp1887
Rp1888
(dp1889
g14
I00
sg32
I01
sg62
F13.33
sg15
I00
sbsg1375
g0
(g542
g2
Ntp1890
Rp1891
(dp1892
g14
I00
sg32
I01
sg62
I301
sg15
I00
sbsg1376
g0
(g1027
g20
(lp1893
F0.0
aF0.0
atp1894
Rp1895
(dp1896
g14
I00
sg32
I01
sg15
I00
sbsbsbsg1068
g1070
sg495
g498
ssg50
g41
sg451
g454
sg1276
g1278
sS'CSCGeometryESModule'
p1897
g0
(g7
g2
Ntp1898
Rp1899
(dp1900
g11
(lp1901
g86
aS'useDDD'
p1902
aS'debugV'
p1903
aS'useGangedStripsInME1a'
p1904
ag1054
aS'useOnlyWiresInME1a'
p1905
aS'useRealWireGeometry'
p1906
aS'useCentreTIOffsets'
p1907
ag443
asg14
I00
sg86
g0
(g58
g2
Ntp1908
Rp1909
(dp1910
g14
I00
sg32
I01
sg62
g90
sg15
I00
sbsg15
I00
sg1903
g0
(g444
g2
Ntp1911
Rp1912
(dp1913
g14
I00
sg32
I00
sg62
I00
sg15
I00
sbsg17
g18
sg1904
g0
(g444
g2
Ntp1914
Rp1915
(dp1916
g14
I00
sg32
I01
sg62
I01
sg15
I00
sbsg1054
g0
(g58
g2
Ntp1917
Rp1918
(dp1919
g14
I00
sg32
I01
sg62
g90
sg15
I00
sbsg1905
g0
(g444
g2
Ntp1920
Rp1921
(dp1922
g14
I00
sg32
I01
sg62
I00
sg15
I00
sbsg1902
g0
(g444
g2
Ntp1923
Rp1924
(dp1925
g14
I00
sg32
I01
sg62
I00
sg15
I00
sbsg16
I52
sg1907
g0
(g444
g2
Ntp1926
Rp1927
(dp1928
g14
I00
sg32
I01
sg62
I00
sg15
I00
sbsg34
g1897
sg1906
g0
(g444
g2
Ntp1929
Rp1930
(dp1931
g14
I00
sg32
I01
sg62
I01
sg15
I00
sbsg443
g0
(g444
g2
Ntp1932
Rp1933
(dp1934
g14
I00
sg32
I01
sg62
I01
sg15
I00
sbsg35
g1897
sbsS'EcalBarrelGeometryFromDBEP'
p1935
g0
(g7
g2
Ntp1936
Rp1937
(dp1938
g11
(lp1939
g443
asg14
I00
sg15
I01
sg16
I52
sg17
g18
sg34
g1935
sg443
g0
(g444
g2
Ntp1940
Rp1941
(dp1942
g14
I00
sg32
I01
sg62
I01
sg15
I01
sbsg35
g1935
sbsS'trackerNumberingGeometryDB'
p1943
g0
(g7
g2
Ntp1944
Rp1945
(dp1946
g11
(lp1947
g86
ag1053
asg14
I00
sg86
g0
(g58
g2
Ntp1948
Rp1949
(dp1950
g14
I00
sg32
I01
sg62
g90
sg15
I00
sbsg15
I00
sg16
I52
sg17
g18
sg34
g1943
sg1053
g0
(g444
g2
Ntp1951
Rp1952
(dp1953
g14
I00
sg32
I01
sg62
I00
sg15
I00
sbsg35
S'TrackerGeometricDetESModule'
p1954
sbsS'_Process__name'
p1955
S'GrowBaobabs'
p1956
sg1154
g1288
sS'_cloneToObjectDict'
p1957
(dp1958
I140535698093392
g0
(g7
g2
Ntp1959
Rp1960
(dp1961
g11
(lp1962
g86
ag1902
ag1903
ag1904
ag1054
ag1905
ag1906
ag1907
ag443
asg14
I00
sg86
g0
(g58
g2
Ntp1963
Rp1964
(dp1965
g14
I00
sg32
I01
sg62
g1181
sg15
I01
sbsg15
I01
sg1903
g0
(g444
g2
Ntp1966
Rp1967
(dp1968
g14
I00
sg32
I00
sg62
I00
sg15
I00
sbsg17
S'/cvmfs/cms.cern.ch/slc6_amd64_gcc630/cms/cmssw/CMSSW_9_4_10/python/Geometry/CSCGeometryBuilder/idealForDigiCscGeometryDB_cff.py'
p1969
sg1904
g0
(g444
g2
Ntp1970
Rp1971
(dp1972
g14
I00
sg32
I01
sg62
I01
sg15
I00
sbsg1054
g0
(g58
g2
Ntp1973
Rp1974
(dp1975
g14
I00
sg32
I01
sg62
g1185
sg15
I01
sbsg1905
g0
(g444
g2
Ntp1976
Rp1977
(dp1978
g14
I00
sg32
I01
sg62
I00
sg15
I00
sbsg1902
g0
(g444
g2
Ntp1979
Rp1980
(dp1981
g14
I00
sg32
I01
sg62
I00
sg15
I00
sbsg16
I8
sg1907
g0
(g444
g2
Ntp1982
Rp1983
(dp1984
g14
I00
sg32
I01
sg62
I00
sg15
I00
sbsg34
S'idealForDigiCSCGeometry'
p1985
sg1906
g0
(g444
g2
Ntp1986
Rp1987
(dp1988
g14
I00
sg32
I01
sg62
I01
sg15
I00
sbsg443
g0
(g444
g2
Ntp1989
Rp1990
(dp1991
g14
I00
sg32
I01
sg62
I00
sg15
I01
sbsg35
g1897
sbsI140535698486288
g440
sI140535698093136
g0
(g7
g2
Ntp1992
Rp1993
(dp1994
g11
(lp1995
g86
asg14
I00
sg86
g0
(g58
g2
Ntp1996
Rp1997
(dp1998
g14
I00
sg32
I01
sg62
g1185
sg15
I01
sbsg15
I01
sg16
I5
sg17
S'/cvmfs/cms.cern.ch/slc6_amd64_gcc630/cms/cmssw/CMSSW_9_4_10/python/Alignment/CommonAlignmentProducer/fakeForIdealAlignmentProducer_cfi.py'
p1999
sg34
S'fakeForIdealAlignment'
p2000
sg35
S'FakeAlignmentProducer'
p2001
sbsI140535697778192
g1104
sI140535697818832
g0
(g7
g2
Ntp2002
Rp2003
(dp2004
g11
(lp2005
g86
aS'PrintDebugOutput'
p2006
aS'ThresholdForReducedGranularity'
p2007
aS'UseEmptyRunInfo'
p2008
aS'ReduceGranularity'
p2009
ag464
asg14
I00
sg86
g0
(g58
g2
Ntp2010
Rp2011
(dp2012
g14
I00
sg32
I01
sg62
g90
sg15
I00
sbsg15
I01
sg16
I52
sg17
g18
sg2007
g0
(g1270
g2
Ntp2013
Rp2014
(dp2015
g14
I00
sg32
I01
sg62
F0.3
sg15
I00
sbsg34
S'siStripQualityESProducer'
p2016
sg2008
g0
(g444
g2
Ntp2017
Rp2018
(dp2019
g14
I00
sg32
I01
sg62
I00
sg15
I00
sbsg2009
g0
(g444
g2
Ntp2020
Rp2021
(dp2022
g14
I00
sg32
I01
sg62
I00
sg15
I00
sbsg464
g0
(g465
g20
(lp2023
g0
(g98
g2
Ntp2024
Rp2025
(dp2026
g14
I00
sg32
I01
sg15
I00
sg470
g0
(g58
g2
Ntp2027
Rp2028
(dp2029
g14
I00
sg32
I01
sg62
S'SiStripDetVOffRcd'
p2030
sg15
I00
sbsg475
g0
(g58
g2
Ntp2031
Rp2032
(dp2033
g14
I00
sg32
I01
sg62
g90
sg15
I00
sbsg11
(lp2034
g470
ag475
asbag0
(g98
g2
Ntp2035
Rp2036
(dp2037
g14
I00
sg32
I01
sg15
I00
sg470
g0
(g58
g2
Ntp2038
Rp2039
(dp2040
g14
I00
sg32
I01
sg62
S'SiStripDetCablingRcd'
p2041
sg15
I00
sbsg475
g0
(g58
g2
Ntp2042
Rp2043
(dp2044
g14
I00
sg32
I01
sg62
g90
sg15
I00
sbsg11
(lp2045
g470
ag475
asbag0
(g98
g2
Ntp2046
Rp2047
(dp2048
g14
I00
sg32
I01
sg15
I00
sg470
g0
(g58
g2
Ntp2049
Rp2050
(dp2051
g14
I00
sg32
I01
sg62
S'RunInfoRcd'
p2052
sg15
I00
sbsg475
g0
(g58
g2
Ntp2053
Rp2054
(dp2055
g14
I00
sg32
I01
sg62
g90
sg15
I00
sbsg11
(lp2056
g470
ag475
asbag0
(g98
g2
Ntp2057
Rp2058
(dp2059
g14
I00
sg32
I01
sg15
I00
sg470
g0
(g58
g2
Ntp2060
Rp2061
(dp2062
g14
I00
sg32
I01
sg62
S'SiStripBadChannelRcd'
p2063
sg15
I00
sbsg475
g0
(g58
g2
Ntp2064
Rp2065
(dp2066
g14
I00
sg32
I01
sg62
g90
sg15
I00
sbsg11
(lp2067
g470
ag475
asbag0
(g98
g2
Ntp2068
Rp2069
(dp2070
g14
I00
sg32
I01
sg15
I00
sg470
g0
(g58
g2
Ntp2071
Rp2072
(dp2073
g14
I00
sg32
I01
sg62
S'SiStripBadFiberRcd'
p2074
sg15
I00
sbsg475
g0
(g58
g2
Ntp2075
Rp2076
(dp2077
g14
I00
sg32
I01
sg62
g90
sg15
I00
sbsg11
(lp2078
g470
ag475
asbag0
(g98
g2
Ntp2079
Rp2080
(dp2081
g14
I00
sg32
I01
sg15
I00
sg470
g0
(g58
g2
Ntp2082
Rp2083
(dp2084
g14
I00
sg32
I01
sg62
S'SiStripBadModuleRcd'
p2085
sg15
I00
sbsg475
g0
(g58
g2
Ntp2086
Rp2087
(dp2088
g14
I00
sg32
I01
sg62
g90
sg15
I00
sbsg11
(lp2089
g470
ag475
asbag0
(g98
g2
Ntp2090
Rp2091
(dp2092
g14
I00
sg32
I01
sg15
I00
sg470
g0
(g58
g2
Ntp2093
Rp2094
(dp2095
g14
I00
sg32
I01
sg62
S'SiStripBadStripRcd'
p2096
sg15
I00
sbsg475
g0
(g58
g2
Ntp2097
Rp2098
(dp2099
g14
I00
sg32
I01
sg62
g90
sg15
I00
sbsg11
(lp2100
g470
ag475
asbatp2101
Rp2102
(dp2103
g14
I00
sg32
I01
sg15
I00
sg33
I1
sbsg35
S'SiStripQualityESProducer'
p2104
sg2006
g0
(g444
g2
Ntp2105
Rp2106
(dp2107
g14
I00
sg32
I01
sg62
I00
sg15
I00
sbsbsI140535698092432
g1175
sI140535698486608
g0
(g7
g2
Ntp2108
Rp2109
(dp2110
g11
(lp2111
S'MergePosition'
p2112
aS'Exclude'
p2113
ag86
asg14
I00
sg86
g0
(g58
g2
Ntp2114
Rp2115
(dp2116
g14
I00
sg32
I01
sg62
g90
sg15
I00
sbsg15
I00
sg16
I52
sg2112
g0
(g444
g2
Ntp2117
Rp2118
(dp2119
g14
I00
sg32
I00
sg62
I01
sg15
I00
sbsg17
g18
sg34
S'hcalTopologyIdeal'
p2120
sg2113
g0
(g58
g2
Ntp2121
Rp2122
(dp2123
g14
I00
sg32
I00
sg62
g90
sg15
I00
sbsg35
S'HcalTopologyIdealEP'
p2124
sbsI140535697777488
g0
(g7
g2
Ntp2125
Rp2126
(dp2127
g11
(lp2128
g1107
aS'LorentzAngleDeconvMode'
p2129
aS'LorentzAnglePeakMode'
p2130
asg14
I00
sg15
I00
sg16
I52
sg17
g18
sg1107
g0
(g98
g2
Ntp2131
Rp2132
(dp2133
g14
I00
sg32
I01
sg15
I00
sg57
g0
(g58
g2
Ntp2134
Rp2135
(dp2136
g14
I00
sg32
I00
sg62
g90
sg15
I00
sbsg470
g0
(g58
g2
Ntp2137
Rp2138
(dp2139
g14
I00
sg32
I01
sg62
g1119
sg15
I00
sbsg11
(lp2140
g470
ag57
asbsg34
S'siStripLorentzAngleDepESProducer'
p2141
sg2130
g0
(g98
g2
Ntp2142
Rp2143
(dp2144
g14
I00
sg32
I01
sg15
I00
sg57
g0
(g58
g2
Ntp2145
Rp2146
(dp2147
g14
I00
sg32
I00
sg62
g1127
sg15
I00
sbsg470
g0
(g58
g2
Ntp2148
Rp2149
(dp2150
g14
I00
sg32
I01
sg62
S'SiStripLorentzAngleRcd'
p2151
sg15
I00
sbsg11
(lp2152
g470
ag57
asbsg35
S'SiStripLorentzAngleDepESProducer'
p2153
sg2129
g0
(g98
g2
Ntp2154
Rp2155
(dp2156
g14
I00
sg32
I01
sg15
I00
sg57
g0
(g58
g2
Ntp2157
Rp2158
(dp2159
g14
I00
sg32
I00
sg62
g1139
sg15
I00
sbsg470
g0
(g58
g2
Ntp2160
Rp2161
(dp2162
g14
I00
sg32
I01
sg62
g2151
sg15
I00
sbsg11
(lp2163
g470
ag57
asbsbsI140535698425616
g1159
sI140535698425232
g1209
sI140535698037264
g0
(g7
g2
Ntp2164
Rp2165
(dp2166
g11
(lp2167
g86
asg14
I00
sg86
g0
(g58
g2
Ntp2168
Rp2169
(dp2170
g14
I00
sg32
I01
sg62
g90
sg15
I00
sbsg15
I00
sg16
I52
sg17
g18
sg34
S'trackerTopology'
p2171
sg35
S'TrackerTopologyEP'
p2172
sbsI140535698486800
g0
(g7
g2
Ntp2173
Rp2174
(dp2175
g11
(lp2176
sg14
I00
sg15
I00
sg16
I52
sg17
g18
sg34
S'CaloTowerTopologyEP'
p2177
sg35
g2177
sbsI140535698036432
g1945
sI140535698141520
g0
(g7
g2
Ntp2178
Rp2179
(dp2180
g11
(lp2181
S'version'
p2182
ag1238
ag57
asg14
I00
sg15
I01
sg16
I52
sg17
g18
sg57
g0
(g58
g2
Ntp2183
Rp2184
(dp2185
g14
I00
sg32
I00
sg62
S'ParabolicMf'
p2186
sg15
I01
sbsg2182
g0
(g58
g2
Ntp2187
Rp2188
(dp2189
g14
I00
sg32
I01
sg62
S'Parabolic'
p2190
sg15
I00
sbsg1238
g0
(g542
g2
Ntp2191
Rp2192
(dp2193
g14
I00
sg32
I01
sg62
I18268
sg15
I01
sbsg34
S'ParabolicParametrizedMagneticFieldProducer'
p2194
sg35
S'AutoParametrizedMagneticFieldProducer'
p2195
sbsI140535698485904
g0
(g7
g2
Ntp2196
Rp2197
(dp2198
g11
(lp2199
g443
asg14
I00
sg15
I01
sg16
I52
sg17
g18
sg34
S'HcalGeometryFromDBEP'
p2200
sg443
g0
(g444
g2
Ntp2201
Rp2202
(dp2203
g14
I00
sg32
I01
sg62
I01
sg15
I01
sbsg35
g2200
sbsI140535697778512
g0
(g7
g2
Ntp2204
Rp2205
(dp2206
g11
(lp2207
S'ComponentType'
p2208
ag1261
aS'parameters'
p2209
asg14
I00
sg15
I00
sg2209
g0
(g98
g2
Ntp2210
Rp2211
(dp2212
g14
I00
sg32
I01
sg15
I00
sg11
(lp2213
sbsg16
I52
sg1261
g0
(g58
g2
Ntp2214
Rp2215
(dp2216
g14
I00
sg32
I01
sg62
S'stripCPE'
p2217
sg15
I00
sbsg2208
g0
(g58
g2
Ntp2218
Rp2219
(dp2220
g14
I00
sg32
I01
sg62
S'SimpleStripCPE'
p2221
sg15
I00
sbsg17
g18
sg34
S'stripCPEESProducer'
p2222
sg35
S'StripCPEESProducer'
p2223
sbsI140535697778640
g0
(g7
g2
Ntp2224
Rp2225
(dp2226
g11
(lp2227
g2208
ag1261
ag2209
asg14
I00
sg15
I01
sg2209
g0
(g98
g2
Ntp2228
Rp2229
(dp2230
g14
I00
sg32
I01
sS'maxChgOneMIP'
p2231
g0
(g1270
g2
Ntp2232
Rp2233
(dp2234
g14
I00
sg32
I01
sg62
F6000.0
sg15
I00
sbsS'mLC_P2'
p2235
g0
(g1270
g2
Ntp2236
Rp2237
(dp2238
g14
I00
sg32
I01
sg62
F0.3
sg15
I00
sbsS'mLC_P1'
p2239
g0
(g1270
g2
Ntp2240
Rp2241
(dp2242
g14
I00
sg32
I01
sg62
F0.618
sg15
I00
sbsS'mLC_P0'
p2243
g0
(g1270
g2
Ntp2244
Rp2245
(dp2246
g14
I00
sg32
I01
sg62
F-0.326
sg15
I00
sbsS'useLegacyError'
p2247
g0
(g444
g2
Ntp2248
Rp2249
(dp2250
g14
I00
sg32
I01
sg62
I00
sg15
I00
sbsS'mTIB_P1'
p2251
g0
(g1270
g2
Ntp2252
Rp2253
(dp2254
g14
I00
sg32
I01
sg62
F0.202
sg15
I00
sbsS'mTEC_P1'
p2255
g0
(g1270
g2
Ntp2256
Rp2257
(dp2258
g14
I00
sg32
I01
sg62
F0.471
sg15
I00
sbsS'mTEC_P0'
p2259
g0
(g1270
g2
Ntp2260
Rp2261
(dp2262
g14
I00
sg32
I01
sg62
F-1.885
sg15
I00
sbsS'mTOB_P0'
p2263
g0
(g1270
g2
Ntp2264
Rp2265
(dp2266
g14
I00
sg32
I01
sg62
F-1.026
sg15
I00
sbsS'mTOB_P1'
p2267
g0
(g1270
g2
Ntp2268
Rp2269
(dp2270
g14
I00
sg32
I01
sg62
F0.253
sg15
I00
sbsS'mTIB_P0'
p2271
g0
(g1270
g2
Ntp2272
Rp2273
(dp2274
g14
I00
sg32
I01
sg62
F-0.742
sg15
I00
sbsg11
(lp2275
g2231
ag2235
ag2239
ag2243
ag2247
ag2255
ag2259
ag2263
ag2267
ag2271
ag2251
aS'mTID_P0'
p2276
aS'mTID_P1'
p2277
asg2276
g0
(g1270
g2
Ntp2278
Rp2279
(dp2280
g14
I00
sg32
I01
sg62
F-1.427
sg15
I00
sbsg2277
g0
(g1270
g2
Ntp2281
Rp2282
(dp2283
g14
I00
sg32
I01
sg62
F0.433
sg15
I00
sbsg15
I00
sbsg16
I4
sg1261
g0
(g58
g2
Ntp2284
Rp2285
(dp2286
g14
I00
sg32
I01
sg62
S'StripCPEfromTrackAngle'
p2287
sg15
I00
sbsg2208
g0
(g58
g2
Ntp2288
Rp2289
(dp2290
g14
I00
sg32
I01
sg62
g2287
sg15
I00
sbsg17
S'/cvmfs/cms.cern.ch/slc6_amd64_gcc630/cms/cmssw/CMSSW_9_4_10/python/RecoLocalTracker/SiStripRecHitConverter/StripCPEfromTrackAngle_cfi.py'
p2291
sg34
S'StripCPEfromTrackAngleESProducer'
p2292
sg35
g2223
sbsI140535698487312
g0
(g7
g2
Ntp2293
Rp2294
(dp2295
g11
(lp2296
g443
asg14
I00
sg15
I00
sg16
I52
sg17
g18
sg34
S'ZdcGeometryFromDBEP'
p2297
sg443
g0
(g444
g2
Ntp2298
Rp2299
(dp2300
g14
I00
sg32
I01
sg62
I00
sg15
I00
sbsg35
g2297
sbsI140535698488400
g0
(g7
g2
Ntp2301
Rp2302
(dp2303
g11
(lp2304
sg14
I00
sg15
I00
sg16
I52
sg17
g18
sg34
S'EcalElectronicsMappingBuilder'
p2305
sg35
g2305
sbsI140535698094224
g0
(g7
g2
Ntp2306
Rp2307
(dp2308
g11
(lp2309
g86
ag1053
ag443
ag1054
asg14
I00
sg86
g0
(g58
g2
Ntp2310
Rp2311
(dp2312
g14
I00
sg32
I01
sg62
g1181
sg15
I01
sbsg15
I01
sg1054
g0
(g58
g2
Ntp2313
Rp2314
(dp2315
g14
I00
sg32
I01
sg62
g1185
sg15
I01
sbsg17
S'/cvmfs/cms.cern.ch/slc6_amd64_gcc630/cms/cmssw/CMSSW_9_4_10/python/Geometry/DTGeometryBuilder/idealForDigiDtGeometryDB_cff.py'
p2316
sg16
I8
sg34
S'idealForDigiDTGeometry'
p2317
sg1053
g0
(g444
g2
Ntp2318
Rp2319
(dp2320
g14
I00
sg32
I01
sg62
I00
sg15
I00
sbsg443
g0
(g444
g2
Ntp2321
Rp2322
(dp2323
g14
I00
sg32
I01
sg62
I00
sg15
I01
sbsg35
g1216
sbsI140535697863184
g595
sI140535698144080
g0
(g7
g2
Ntp2324
Rp2325
(dp2326
g11
(lp2327
sg14
I00
sg15
I00
sg16
I52
sg17
g18
sg34
S'EcalLaserCorrectionService'
p2328
sg35
g2328
sbsI140535698487632
g1016
sI140535698037136
g0
(g7
g2
Ntp2329
Rp2330
(dp2331
g11
(lp2332
sg14
I00
sg15
I00
sg16
I52
sg17
g18
sg34
S'TrackerRecoGeometryESProducer'
p2333
sg35
g2333
sbsI140535698038288
g9
sI140535698210896
g0
(g7
g2
Ntp2334
Rp2335
(dp2336
g11
(lp2337
S'file'
p2338
aS'dump'
p2339
asg14
I00
sg15
I00
sg2339
g0
(g19
g20
(lp2340
g90
atp2341
Rp2342
(dp2343
g14
I00
sg32
I00
sg15
I00
sg33
I1
sbsg16
I52
sg17
g18
sg2338
g0
(g58
g2
Ntp2344
Rp2345
(dp2346
g14
I00
sg32
I00
sg62
g90
sg15
I00
sbsg34
S'hcal_db_producer'
p2347
sg35
S'HcalDbProducer'
p2348
sbsI140535698487952
g1094
sI140535698037456
g739
sI140535698094928
g53
sI140535697864400
g584
sI140535698037840
g1252
sI140535698265424
g1150
sI140535697779984
g1257
sI140535698095312
g1204
sI140535697780112
g0
(g7
g2
Ntp2349
Rp2350
(dp2351
g11
(lp2352
sg14
I00
sg15
I00
sg16
I52
sg17
g18
sg34
S'sistripconn'
p2353
sg35
S'SiStripConnectivity'
p2354
sbsI140535698036048
g1218
sI140535698266448
g0
(g7
g2
Ntp2355
Rp2356
(dp2357
g11
(lp2358
g86
asg14
I00
sg86
g0
(g58
g2
Ntp2359
Rp2360
(dp2361
g14
I00
sg32
I01
sg62
g90
sg15
I00
sbsg15
I00
sg16
I52
sg17
g18
sg34
S'CastorDbProducer'
p2362
sg35
g2362
sbsI140535698092240
g0
(g7
g2
Ntp2363
Rp2364
(dp2365
g11
(lp2366
g86
asg14
I00
sg86
g0
(g58
g2
Ntp2367
Rp2368
(dp2369
g14
I00
sg32
I01
sg62
g90
sg15
I00
sbsg15
I00
sg16
I52
sg17
g18
sg34
S'hcalDDDRecConstants'
p2370
sg35
S'HcalDDDRecConstantsESModule'
p2371
sbsI140535698095888
g1235
sI140535698143568
g498
sI140535698489168
g83
sI140535698038672
g744
sI140535698268048
g0
(g7
g2
Ntp2372
Rp2373
(dp2374
g11
(lp2375
S'printDebug'
p2376
ag86
aS'APVGain'
p2377
aS'AutomaticNormalization'
p2378
asg14
I00
sg86
g0
(g58
g2
Ntp2379
Rp2380
(dp2381
g14
I00
sg32
I01
sg62
g90
sg15
I00
sbsg15
I00
sg2378
g0
(g444
g2
Ntp2382
Rp2383
(dp2384
g14
I00
sg32
I01
sg62
I00
sg15
I00
sbsg16
I52
sg2376
g0
(g444
g2
Ntp2385
Rp2386
(dp2387
g14
I00
sg32
I00
sg62
I00
sg15
I00
sbsg17
g18
sg2377
g0
(g465
g20
(lp2388
g0
(g98
g2
Ntp2389
Rp2390
(dp2391
g14
I00
sg32
I01
sg15
I00
sS'Label'
p2392
g0
(g58
g2
Ntp2393
Rp2394
(dp2395
g14
I00
sg32
I00
sg62
g90
sg15
I00
sbsS'Record'
p2396
g0
(g58
g2
Ntp2397
Rp2398
(dp2399
g14
I00
sg32
I01
sg62
S'SiStripApvGainRcd'
p2400
sg15
I00
sbsS'NormalizationFactor'
p2401
g0
(g1270
g2
Ntp2402
Rp2403
(dp2404
g14
I00
sg32
I00
sg62
F1.0
sg15
I00
sbsg11
(lp2405
g2396
ag2401
ag2392
asbag0
(g98
g2
Ntp2406
Rp2407
(dp2408
g14
I00
sg32
I01
sg15
I00
sg2392
g0
(g58
g2
Ntp2409
Rp2410
(dp2411
g14
I00
sg32
I00
sg62
g90
sg15
I00
sbsg2396
g0
(g58
g2
Ntp2412
Rp2413
(dp2414
g14
I00
sg32
I01
sg62
S'SiStripApvGain2Rcd'
p2415
sg15
I00
sbsg2401
g0
(g1270
g2
Ntp2416
Rp2417
(dp2418
g14
I00
sg32
I00
sg62
F1.0
sg15
I00
sbsg11
(lp2419
g2396
ag2401
ag2392
asbatp2420
Rp2421
(dp2422
g14
I00
sg32
I01
sg15
I00
sg33
I1
sbsg34
S'siStripGainESProducer'
p2423
sg35
S'SiStripGainESProducer'
p2424
sbsI140535698145232
g1024
sI140535698485328
g0
(g7
g2
Ntp2425
Rp2426
(dp2427
g11
(lp2428
g443
asg14
I00
sg15
I01
sg16
I52
sg17
g18
sg34
S'EcalPreshowerGeometryFromDBEP'
p2429
sg443
g0
(g444
g2
Ntp2430
Rp2431
(dp2432
g14
I00
sg32
I01
sg62
I01
sg15
I01
sbsg35
g2429
sbsI140535697817744
g461
sI140535698485456
g1937
sI140535698264336
g1288
sI140535698035024
g1899
sI140535698502032
g454
sI140535698488656
g1070
sI140535698036880
g1050
sI140535698037072
g0
(g7
g2
Ntp2433
Rp2434
(dp2435
g11
(lp2436
sg14
I00
sg15
I00
sg16
I52
sg17
g18
sg34
S'GlobalTrackingGeometryESProducer'
p2437
sg35
g2437
sbsI140535698141776
g1278
sI140535698035344
g0
(g7
g2
Ntp2438
Rp2439
(dp2440
g11
(lp2441
g1902
aS'compatibiltyWith11'
p2442
asg14
I00
sg15
I00
sg16
I52
sg17
g18
sg1902
g0
(g444
g2
Ntp2443
Rp2444
(dp2445
g14
I00
sg32
I00
sg62
I00
sg15
I00
sbsg2442
g0
(g444
g2
Ntp2446
Rp2447
(dp2448
g14
I00
sg32
I00
sg62
I01
sg15
I00
sbsg34
S'RPCGeometryESModule'
p2449
sg35
g2449
sbsI140535698485968
g0
(g7
g2
Ntp2450
Rp2451
(dp2452
g11
(lp2453
sg14
I00
sg15
I00
sg16
I52
sg17
g18
sg34
S'HcalAlignmentEP'
p2454
sg35
g2454
sbssg2423
g2373
sg2449
g2439
sg2353
g2350
sg2297
g2294
sg2333
g2330
sg2141
g2126
sg2177
g2174
sg2194
g2179
sg2222
g2205
sg2171
g2165
sg2200
g2197
sg1147
g1150
sg2305
g2302
sg2292
g2225
sS'_Process__aliases'
p2455
(dp2456
sg2437
g2434
sg2120
g2109
sg2454
g2451
sg2429
g2426
sg2370
g2364
sg2362
g2356
sg1985
g1960
sS'_Process__subProcesses'
p2457
(lp2458
sg2347
g2335
sg2328
g2325
sS'_Process__schedule'
p2459
Nsg2016
g2003
sg2317
g2307
sS'_Process__modifiers'
p2460
(tsS'_Process__filters'
p2461
(dp2462
sS'_Process__esproducers'
p2463
(dp2464
g6
g9
sg2016
g2003
sg2328
g2325
sg2333
g2330
sg1233
g1235
sg2292
g2225
sg1014
g1016
sg1250
g1252
sg2437
g2434
sg51
g53
sg1048
g1050
sg2141
g2126
sg2120
g2109
sg2454
g2451
sg2429
g2426
sg2362
g2356
sg2370
g2364
sg1897
g1899
sg1935
g1937
sg1943
g1945
sg2305
g2302
sg1092
g1094
sg1985
g1960
sg438
g440
sg1102
g1104
sg2347
g2335
sg2423
g2373
sg1255
g1257
sg2449
g2439
sg2317
g2307
sg2297
g2294
sg1216
g1218
sg742
g744
sg2353
g2350
sg459
g461
sg1173
g1175
sg2177
g2174
sg2194
g2179
sg2222
g2205
sg81
g83
sg737
g739
sg2171
g2165
sg1202
g1204
sg2000
g1993
sg2200
g2197
ssS'_Process__partialschedules'
p2465
(dp2466
sg2000
g1993
sb.