(dp1
S'OriginalConfig'
p2
ccopy_reg
_reconstructor
p3
(cWMCore.Configuration
Configuration
p4
c__builtin__
object
p5
NtRp6
(dp7
S'Site'
p8
g3
(cWMCore.Configuration
ConfigSection
p9
g5
NtRp10
(dp11
S'_internal_skipChecks'
p12
I00
sS'_internal_documentation'
p13
S''
sS'_internal_settings'
p14
c__builtin__
set
p15
((lp16
S'blacklist'
p17
aS'storageSite'
p18
atRp19
sS'_internal_name'
p20
g8
sS'_internal_docstrings'
p21
(dp22
sg17
(lp23
S'T3_TW_NTU_HEP'
p24
aS'T3_GR_IASA'
p25
aS'T2_GR_Ioannina'
p26
aS'T3_MX_Cinvestav'
p27
aS'T2_DE_RWTH'
p28
aS'T2_UK_SGrid_RALPP'
p29
aS'T3_RU_FIAN'
p30
aS'T2_FI_HIP'
p31
aS'T2_BR_SPRACE'
p32
aS'T2_ES_CIEMAT'
p33
aS'T2_EE_Estonia'
p34
asS'_internal_children'
p35
g15
((ltRp36
sg18
S'T2_CH_CERN'
p37
sS'_internal_parent_ref'
p38
NsbsS'_internal_sections'
p39
(lp40
S'General'
p41
aS'JobType'
p42
aS'Data'
p43
aS'User'
p44
ag8
asg41
g3
(g9
g5
NtRp45
(dp46
g12
I00
sg13
S''
sg14
g15
((lp47
S'transferOutputs'
p48
aS'transferLogs'
p49
aS'requestName'
p50
atRp51
sg20
g41
sg21
(dp52
sg48
I01
sg35
g15
((ltRp53
sg50
S'SingleMuon-VJetPruner-SMu'
p54
sg38
Nsg49
I01
sbsS'_internal_webapps'
p55
(lp56
sg44
g3
(g9
g5
NtRp57
(dp58
g12
I00
sg13
S''
sg14
g15
((ltRp59
sg20
g44
sg21
(dp60
sg35
g15
((ltRp61
sg38
NsbsS'_internal_components'
p62
(lp63
sg43
g3
(g9
g5
NtRp64
(dp65
g12
I00
sS'unitsPerJob'
p66
I20
sg13
S''
sg14
g15
((lp67
g66
aS'outLFNDirBase'
p68
aS'splitting'
p69
aS'totalUnits'
p70
aS'publication'
p71
atRp72
sg20
g43
sg69
S'EventBased'
p73
sg21
(dp74
sg35
g15
((ltRp75
sg71
I00
sg68
S'/store/group/phys_smp/AnalysisFramework/Baobab/awisecar/2017/31Mar2018/Bonzai/v1/Data'
p76
sg38
Nsg70
I254
sbsg42
g3
(g9
g5
NtRp77
(dp78
S'outputFiles'
p79
(lp80
S'Bonzai-SingleMuon-VJetPruner-SMu.root'
p81
asg12
I00
sS'scriptArgs'
p82
(lp83
S'sel=VJetPruner'
p84
aS'subsel=SMu'
p85
aS'output_file=Bonzai-SingleMuon-VJetPruner-SMu.root'
p86
aS'input_catalog=crabBonzai_SingleMuon-VJetPruner-SMu_inputs.txt'
p87
aS'files_per_job=20'
p88
asg13
S''
sg14
g15
((lp89
g79
ag82
aS'pluginName'
p90
aS'scriptExe'
p91
aS'psetName'
p92
aS'inputFiles'
p93
aS'maxJobRuntimeMin'
p94
atRp95
sg20
g42
sg90
S'PrivateMC'
p96
sg21
(dp97
sg91
S'job_bonzai_prod.sh'
p98
sg35
g15
((ltRp99
sg92
S'donothing_cfg.py'
p100
sg38
Nsg93
(lp101
S'crabBonzai_SingleMuon-VJetPruner-SMu_inputs.txt'
p102
aS'/afs/cern.ch/work/a/awisecar/WJetsNtuple16/CMSSW_9_4_10/src/shears/Bonzais/Pruner/pruner'
p103
asg94
I1400
sbsbsS'voGroup'
p104
S''
sS'Server'
p105
S'cmsweb.cern.ch'
p106
sS'instance'
p107
S'prod'
p108
sS'RequestName'
p109
V190705_150758:awisecar_crab_SingleMuon-VJetPruner-SMu
p110
sS'voRole'
p111
S'NULL'
p112
sS'Port'
p113
S''
s.