ccopy_reg
_reconstructor
p0
(cFWCore.ParameterSet.Config
Process
p1
c__builtin__
object
p2
Ntp3
Rp4
(dp5
S'CaloGeometryBuilder'
p6
g0
(cFWCore.ParameterSet.Modules
ESProducer
p7
g2
Ntp8
Rp9
(dp10
S'_Parameterizable__parameterNames'
p11
(lp12
S'SelectedCalos'
p13
asS'_isFrozen'
p14
I00
sS'_isModified'
p15
I00
sS'_lineNumber'
p16
I52
sS'_filename'
p17
S'/cvmfs/cms.cern.ch/slc6_amd64_gcc630/cms/cmssw/CMSSW_9_4_10/python/FWCore/ParameterSet/Modules.py'
p18
sg13
g0
(cFWCore.ParameterSet.Types
vstring
p19
c__builtin__
list
p20
(lp21
S'HCAL'
p22
aS'ZDC'
p23
aS'CASTOR'
p24
aS'EcalBarrel'
p25
aS'EcalEndcap'
p26
aS'EcalPreshower'
p27
aS'TOWER'
p28
atp29
Rp30
(dp31
g14
I00
sS'_ParameterTypeBase__isTracked'
p32
I01
sg15
I00
sS'_nPerLine'
p33
I1
sbsS'_Labelable__label'
p34
g6
sS'_TypedParameterizable__type'
p35
g6
sbsS'_Process__sequences'
p36
(dp37
sS'_Process__source'
p38
g0
(cFWCore.ParameterSet.Modules
Source
p39
g2
Ntp40
Rp41
(dp42
g11
(lp43
S'fileNames'
p44
asg14
I00
sg15
I00
sg16
I192
sg17
g18
sg44
g0
(g19
g20
(lp45
S'/store/data/Run2017B/SingleMuon/MINIAOD/31Mar2018-v1/90000/FEC62083-1E39-E811-B2A1-0CC47A4D75F8.root'
p46
atp47
Rp48
(dp49
g14
I00
sg32
I00
sg15
I00
sg33
I1
sbsg35
S'PoolSource'
p50
sbsS'XMLFromDBSource'
p51
g0
(g7
g2
Ntp52
Rp53
(dp54
g11
(lp55
S'rootDDName'
p56
aS'label'
p57
asg14
I00
sg15
I00
sg16
I52
sg17
g18
sg56
g0
(cFWCore.ParameterSet.Types
string
p58
g2
Ntp59
Rp60
(dp61
g14
I00
sg32
I01
sS'_value'
p62
S'cms:OCMS'
p63
sg15
I00
sbsg57
g0
(g58
g2
Ntp64
Rp65
(dp66
g14
I00
sg32
I01
sg62
S'Extended'
p67
sg15
I00
sbsg34
g51
sg35
S'XMLIdealGeometryESProducer'
p68
sbsS'TFileService'
p69
g0
(cFWCore.ParameterSet.Modules
Service
p70
g2
Ntp71
Rp72
(dp73
g11
(lp74
S'fileName'
p75
asg14
I00
sS'_inProcess'
p76
I01
sg15
I00
sg16
I10
sg17
g18
sg75
g0
(g58
g2
Ntp77
Rp78
(dp79
g14
I00
sg32
I01
sg62
S'ntupleOut.root'
p80
sg15
I00
sbsg35
g69
sbsS'hcalDDDSimConstants'
p81
g0
(g7
g2
Ntp82
Rp83
(dp84
g11
(lp85
S'appendToDataLabel'
p86
asg14
I00
sg86
g0
(g58
g2
Ntp87
Rp88
(dp89
g14
I00
sg32
I01
sg62
S''
p90
sg15
I00
sbsg15
I00
sg16
I52
sg17
g18
sg34
g81
sg35
S'HcalDDDSimConstantsESModule'
p91
sbsS'source'
p92
g41
sS'RandomNumberGeneratorService'
p93
g0
(g70
g2
Ntp94
Rp95
(dp96
g14
I00
sS'horeco'
p97
g0
(cFWCore.ParameterSet.Types
PSet
p98
g2
Ntp99
Rp100
(dp101
g14
I00
sg32
I01
sg15
I00
sS'initialSeed'
p102
g0
(cFWCore.ParameterSet.Types
uint32
p103
g2
Ntp104
Rp105
(dp106
g14
I00
sg32
I00
sg62
I541321
sg15
I00
sbsg11
(lp107
g102
aS'engineName'
p108
asg108
g0
(g58
g2
Ntp109
Rp110
(dp111
g14
I00
sg32
I00
sg62
S'TRandom3'
p112
sg15
I00
sbsbsg16
I10
sS'paramMuons'
p113
g0
(g98
g2
Ntp114
Rp115
(dp116
g14
I00
sg32
I01
sg15
I00
sg102
g0
(g103
g2
Ntp117
Rp118
(dp119
g14
I00
sg32
I00
sg62
I54525
sg15
I00
sbsg11
(lp120
g102
ag108
asg108
g0
(g58
g2
Ntp121
Rp122
(dp123
g14
I00
sg32
I00
sg62
g112
sg15
I00
sbsbsS'saveFileName'
p124
g0
(g58
g2
Ntp125
Rp126
(dp127
g14
I00
sg32
I00
sg62
g90
sg15
I00
sbsS'hbhereco'
p128
g0
(g98
g2
Ntp129
Rp130
(dp131
g14
I00
sg32
I01
sg15
I00
sg102
g0
(g103
g2
Ntp132
Rp133
(dp134
g14
I00
sg32
I00
sg62
I541321
sg15
I00
sbsg11
(lp135
g102
ag108
asg108
g0
(g58
g2
Ntp136
Rp137
(dp138
g14
I00
sg32
I00
sg62
g112
sg15
I00
sbsbsS'simSiStripDigiSimLink'
p139
g0
(g98
g2
Ntp140
Rp141
(dp142
g14
I00
sg32
I01
sg15
I00
sg102
g0
(g103
g2
Ntp143
Rp144
(dp145
g14
I00
sg32
I00
sg62
I1234567
sg15
I00
sbsg11
(lp146
g102
ag108
asg108
g0
(g58
g2
Ntp147
Rp148
(dp149
g14
I00
sg32
I00
sg62
S'HepJamesRandom'
p150
sg15
I00
sbsbsS'externalLHEProducer'
p151
g0
(g98
g2
Ntp152
Rp153
(dp154
g14
I00
sg32
I01
sg15
I00
sg102
g0
(g103
g2
Ntp155
Rp156
(dp157
g14
I00
sg32
I00
sg62
I234567
sg15
I00
sbsg11
(lp158
g102
ag108
asg108
g0
(g58
g2
Ntp159
Rp160
(dp161
g14
I00
sg32
I00
sg62
g150
sg15
I00
sbsbsS'famosPileUp'
p162
g0
(g98
g2
Ntp163
Rp164
(dp165
g14
I00
sg32
I01
sg15
I00
sg102
g0
(g103
g2
Ntp166
Rp167
(dp168
g14
I00
sg32
I00
sg62
I918273
sg15
I00
sbsg11
(lp169
g102
ag108
asg108
g0
(g58
g2
Ntp170
Rp171
(dp172
g14
I00
sg32
I00
sg62
g112
sg15
I00
sbsbsS'simMuonDTDigis'
p173
g0
(g98
g2
Ntp174
Rp175
(dp176
g14
I00
sg32
I01
sg15
I00
sg102
g0
(g103
g2
Ntp177
Rp178
(dp179
g14
I00
sg32
I00
sg62
I1234567
sg15
I00
sbsg11
(lp180
g102
ag108
asg108
g0
(g58
g2
Ntp181
Rp182
(dp183
g14
I00
sg32
I00
sg62
g150
sg15
I00
sbsbsg35
g93
sg11
(lp184
g97
ag113
ag124
ag128
ag139
ag151
ag162
ag173
aS'ecalPreshowerRecHit'
p185
aS'generator'
p186
aS'simMuonRPCDigis'
p187
aS'hiSignal'
p188
aS'CTPPSFastRecHits'
p189
aS'mixSimCaloHits'
p190
aS'mix'
p191
aS'fastTrackerRecHits'
p192
aS'VtxSmeared'
p193
aS'LHCTransport'
p194
aS'ecalRecHit'
p195
aS'hfreco'
p196
aS'mixRecoTracks'
p197
aS'hiSignalG4SimHits'
p198
aS'famosSimHits'
p199
aS'MuonSimHits'
p200
aS'g4SimHits'
p201
aS'hiSignalLHCTransport'
p202
aS'mixGenPU'
p203
aS'l1ParamMuons'
p204
aS'simBeamSpotFilter'
p205
aS'simMuonCSCDigis'
p206
aS'mixData'
p207
asg185
g0
(g98
g2
Ntp208
Rp209
(dp210
g14
I00
sg32
I01
sg15
I00
sg102
g0
(g103
g2
Ntp211
Rp212
(dp213
g14
I00
sg32
I00
sg62
I6541321
sg15
I00
sbsg11
(lp214
g102
ag108
asg108
g0
(g58
g2
Ntp215
Rp216
(dp217
g14
I00
sg32
I00
sg62
g112
sg15
I00
sbsbsg76
I01
sg186
g0
(g98
g2
Ntp218
Rp219
(dp220
g14
I00
sg32
I01
sg15
I00
sg102
g0
(g103
g2
Ntp221
Rp222
(dp223
g14
I00
sg32
I00
sg62
I123456789
sg15
I00
sbsg11
(lp224
g102
ag108
asg108
g0
(g58
g2
Ntp225
Rp226
(dp227
g14
I00
sg32
I00
sg62
g150
sg15
I00
sbsbsg187
g0
(g98
g2
Ntp228
Rp229
(dp230
g14
I00
sg32
I01
sg15
I00
sg102
g0
(g103
g2
Ntp231
Rp232
(dp233
g14
I00
sg32
I00
sg62
I1234567
sg15
I00
sbsg11
(lp234
g102
ag108
asg108
g0
(g58
g2
Ntp235
Rp236
(dp237
g14
I00
sg32
I00
sg62
g150
sg15
I00
sbsbsg188
g0
(g98
g2
Ntp238
Rp239
(dp240
g14
I00
sg32
I01
sg15
I00
sg102
g0
(g103
g2
Ntp241
Rp242
(dp243
g14
I00
sg32
I00
sg62
I123456789
sg15
I00
sbsg11
(lp244
g102
ag108
asg108
g0
(g58
g2
Ntp245
Rp246
(dp247
g14
I00
sg32
I00
sg62
g150
sg15
I00
sbsbsg189
g0
(g98
g2
Ntp248
Rp249
(dp250
g14
I00
sg32
I01
sg15
I00
sg102
g0
(g103
g2
Ntp251
Rp252
(dp253
g14
I00
sg32
I00
sg62
I1357987
sg15
I00
sbsg11
(lp254
g102
ag108
asg108
g0
(g58
g2
Ntp255
Rp256
(dp257
g14
I00
sg32
I00
sg62
g112
sg15
I00
sbsbsg190
g0
(g98
g2
Ntp258
Rp259
(dp260
g14
I00
sg32
I01
sg15
I00
sg102
g0
(g103
g2
Ntp261
Rp262
(dp263
g14
I00
sg32
I00
sg62
I918273
sg15
I00
sbsg11
(lp264
g102
ag108
asg108
g0
(g58
g2
Ntp265
Rp266
(dp267
g14
I00
sg32
I00
sg62
g112
sg15
I00
sbsbsg191
g0
(g98
g2
Ntp268
Rp269
(dp270
g14
I00
sg32
I01
sg15
I00
sg102
g0
(g103
g2
Ntp271
Rp272
(dp273
g14
I00
sg32
I00
sg62
I12345
sg15
I00
sbsg11
(lp274
g102
ag108
asg108
g0
(g58
g2
Ntp275
Rp276
(dp277
g14
I00
sg32
I00
sg62
g150
sg15
I00
sbsbsg192
g0
(g98
g2
Ntp278
Rp279
(dp280
g14
I00
sg32
I01
sg15
I00
sg102
g0
(g103
g2
Ntp281
Rp282
(dp283
g14
I00
sg32
I00
sg62
I24680
sg15
I00
sbsg11
(lp284
g102
ag108
asg108
g0
(g58
g2
Ntp285
Rp286
(dp287
g14
I00
sg32
I00
sg62
g112
sg15
I00
sbsbsg193
g0
(g98
g2
Ntp288
Rp289
(dp290
g14
I00
sg32
I01
sg15
I00
sg102
g0
(g103
g2
Ntp291
Rp292
(dp293
g14
I00
sg32
I00
sg62
I98765432
sg15
I00
sbsg11
(lp294
g102
ag108
asg108
g0
(g58
g2
Ntp295
Rp296
(dp297
g14
I00
sg32
I00
sg62
g150
sg15
I00
sbsbsg194
g0
(g98
g2
Ntp298
Rp299
(dp300
g14
I00
sg32
I01
sg15
I00
sg102
g0
(g103
g2
Ntp301
Rp302
(dp303
g14
I00
sg32
I00
sg62
I87654321
sg15
I00
sbsg11
(lp304
g102
ag108
asg108
g0
(g58
g2
Ntp305
Rp306
(dp307
g14
I00
sg32
I00
sg62
g112
sg15
I00
sbsbsg195
g0
(g98
g2
Ntp308
Rp309
(dp310
g14
I00
sg32
I01
sg15
I00
sg102
g0
(g103
g2
Ntp311
Rp312
(dp313
g14
I00
sg32
I00
sg62
I654321
sg15
I00
sbsg11
(lp314
g102
ag108
asg108
g0
(g58
g2
Ntp315
Rp316
(dp317
g14
I00
sg32
I00
sg62
g112
sg15
I00
sbsbsg207
g0
(g98
g2
Ntp318
Rp319
(dp320
g14
I00
sg32
I01
sg15
I00
sg102
g0
(g103
g2
Ntp321
Rp322
(dp323
g14
I00
sg32
I00
sg62
I12345
sg15
I00
sbsg11
(lp324
g102
ag108
asg108
g0
(g58
g2
Ntp325
Rp326
(dp327
g14
I00
sg32
I00
sg62
g150
sg15
I00
sbsbsg197
g0
(g98
g2
Ntp328
Rp329
(dp330
g14
I00
sg32
I01
sg15
I00
sg102
g0
(g103
g2
Ntp331
Rp332
(dp333
g14
I00
sg32
I00
sg62
I918273
sg15
I00
sbsg11
(lp334
g102
ag108
asg108
g0
(g58
g2
Ntp335
Rp336
(dp337
g14
I00
sg32
I00
sg62
g112
sg15
I00
sbsbsg198
g0
(g98
g2
Ntp338
Rp339
(dp340
g14
I00
sg32
I01
sg15
I00
sg102
g0
(g103
g2
Ntp341
Rp342
(dp343
g14
I00
sg32
I00
sg62
I11
sg15
I00
sbsg11
(lp344
g102
ag108
asg108
g0
(g58
g2
Ntp345
Rp346
(dp347
g14
I00
sg32
I00
sg62
g150
sg15
I00
sbsbsg199
g0
(g98
g2
Ntp348
Rp349
(dp350
g14
I00
sg32
I01
sg15
I00
sg102
g0
(g103
g2
Ntp351
Rp352
(dp353
g14
I00
sg32
I00
sg62
I13579
sg15
I00
sbsg11
(lp354
g102
ag108
asg108
g0
(g58
g2
Ntp355
Rp356
(dp357
g14
I00
sg32
I00
sg62
g112
sg15
I00
sbsbsg200
g0
(g98
g2
Ntp358
Rp359
(dp360
g14
I00
sg32
I01
sg15
I00
sg102
g0
(g103
g2
Ntp361
Rp362
(dp363
g14
I00
sg32
I00
sg62
I987346
sg15
I00
sbsg11
(lp364
g102
ag108
asg108
g0
(g58
g2
Ntp365
Rp366
(dp367
g14
I00
sg32
I00
sg62
g112
sg15
I00
sbsbsg201
g0
(g98
g2
Ntp368
Rp369
(dp370
g14
I00
sg32
I01
sg15
I00
sg102
g0
(g103
g2
Ntp371
Rp372
(dp373
g14
I00
sg32
I00
sg62
I11
sg15
I00
sbsg11
(lp374
g102
ag108
asg108
g0
(g58
g2
Ntp375
Rp376
(dp377
g14
I00
sg32
I00
sg62
g150
sg15
I00
sbsbsg202
g0
(g98
g2
Ntp378
Rp379
(dp380
g14
I00
sg32
I01
sg15
I00
sg102
g0
(g103
g2
Ntp381
Rp382
(dp383
g14
I00
sg32
I00
sg62
I88776655
sg15
I00
sbsg11
(lp384
g102
ag108
asg108
g0
(g58
g2
Ntp385
Rp386
(dp387
g14
I00
sg32
I00
sg62
g112
sg15
I00
sbsbsg203
g0
(g98
g2
Ntp388
Rp389
(dp390
g14
I00
sg32
I01
sg15
I00
sg102
g0
(g103
g2
Ntp391
Rp392
(dp393
g14
I00
sg32
I00
sg62
I918273
sg15
I00
sbsg11
(lp394
g102
ag108
asg108
g0
(g58
g2
Ntp395
Rp396
(dp397
g14
I00
sg32
I00
sg62
g112
sg15
I00
sbsbsg204
g0
(g98
g2
Ntp398
Rp399
(dp400
g14
I00
sg32
I01
sg15
I00
sg102
g0
(g103
g2
Ntp401
Rp402
(dp403
g14
I00
sg32
I00
sg62
I6453209
sg15
I00
sbsg11
(lp404
g102
ag108
asg108
g0
(g58
g2
Ntp405
Rp406
(dp407
g14
I00
sg32
I00
sg62
g112
sg15
I00
sbsbsg15
I00
sg205
g0
(g98
g2
Ntp408
Rp409
(dp410
g14
I00
sg32
I01
sg15
I00
sg102
g0
(g103
g2
Ntp411
Rp412
(dp413
g14
I00
sg32
I00
sg62
I87654321
sg15
I00
sbsg11
(lp414
g102
ag108
asg108
g0
(g58
g2
Ntp415
Rp416
(dp417
g14
I00
sg32
I00
sg62
g150
sg15
I00
sbsbsg206
g0
(g98
g2
Ntp418
Rp419
(dp420
g14
I00
sg32
I01
sg15
I00
sg102
g0
(g103
g2
Ntp421
Rp422
(dp423
g14
I00
sg32
I00
sg62
I11223344
sg15
I00
sbsg11
(lp424
g102
ag108
asg108
g0
(g58
g2
Ntp425
Rp426
(dp427
g14
I00
sg32
I00
sg62
g150
sg15
I00
sbsbsg196
g0
(g98
g2
Ntp428
Rp429
(dp430
g14
I00
sg32
I01
sg15
I00
sg102
g0
(g103
g2
Ntp431
Rp432
(dp433
g14
I00
sg32
I00
sg62
I541321
sg15
I00
sbsg11
(lp434
g102
ag108
asg108
g0
(g58
g2
Ntp435
Rp436
(dp437
g14
I00
sg32
I00
sg62
g112
sg15
I00
sbsbsg17
g18
sbsS'CaloTowerGeometryFromDBEP'
p438
g0
(g7
g2
Ntp439
Rp440
(dp441
g11
(lp442
S'applyAlignment'
p443
asg14
I00
sg15
I00
sg16
I52
sg17
g18
sg34
g438
sg443
g0
(cFWCore.ParameterSet.Types
bool
p444
g2
Ntp445
Rp446
(dp447
g14
I00
sg32
I01
sg62
I00
sg15
I00
sbsg35
g438
sbsS'_Process__InExtendCall'
p448
I00
sS'_Process__producers'
p449
(dp450
S'randomEngineStateProducer'
p451
g0
(cFWCore.ParameterSet.Modules
EDProducer
p452
g2
Ntp453
Rp454
(dp455
g11
(lp456
sg14
I00
sg15
I00
sg16
I173
sg17
S'/cvmfs/cms.cern.ch/slc6_amd64_gcc630/cms/cmssw/CMSSW_9_4_10/python/IOMC/RandomEngine/IOMC_cff.py'
p457
sg34
g451
sg35
S'RandomEngineStateProducer'
p458
sbssS'siPixelQualityESProducer'
p459
g0
(g7
g2
Ntp460
Rp461
(dp462
g11
(lp463
S'ListOfRecordToMerge'
p464
asg14
I00
sg15
I01
sg16
I52
sg17
g18
sg464
g0
(cFWCore.ParameterSet.Types
VPSet
p465
g20
(lp466
g0
(g98
g2
Ntp467
Rp468
(dp469
g14
I00
sg32
I01
sg15
I00
sS'record'
p470
g0
(g58
g2
Ntp471
Rp472
(dp473
g14
I00
sg32
I01
sg62
S'SiPixelQualityFromDbRcd'
p474
sg15
I00
sbsS'tag'
p475
g0
(g58
g2
Ntp476
Rp477
(dp478
g14
I00
sg32
I01
sg62
g90
sg15
I00
sbsg11
(lp479
g470
ag475
asbag0
(g98
g2
Ntp480
Rp481
(dp482
g14
I00
sg32
I01
sg15
I00
sg470
g0
(g58
g2
Ntp483
Rp484
(dp485
g14
I00
sg32
I01
sg62
S'SiPixelDetVOffRcd'
p486
sg15
I00
sbsg475
g0
(g58
g2
Ntp487
Rp488
(dp489
g14
I00
sg32
I01
sg62
g90
sg15
I00
sbsg11
(lp490
g470
ag475
asbatp491
Rp492
(dp493
g14
I00
sg32
I01
sg15
I00
sg33
I1
sbsg34
g459
sg35
S'SiPixelQualityESProducer'
p494
sbsS'GlobalTag'
p495
g0
(cFWCore.ParameterSet.Modules
ESSource
p496
g2
Ntp497
Rp498
(dp499
g11
(lp500
S'DBParameters'
p501
aS'connect'
p502
aS'globaltag'
p503
aS'RefreshEachRun'
p504
aS'pfnPrefix'
p505
aS'snapshotTime'
p506
aS'toGet'
p507
aS'pfnPostfix'
p508
aS'RefreshAlways'
p509
aS'ReconnectEachRun'
p510
aS'RefreshOpenIOVs'
p511
aS'DumpStat'
p512
asg14
I00
sg17
S'/cvmfs/cms.cern.ch/slc6_amd64_gcc630/cms/cmssw/CMSSW_9_4_10/python/CondCore/ESSources/CondDBESSource_cfi.py'
p513
sg15
I01
sg503
g0
(g58
g2
Ntp514
Rp515
(dp516
g14
I00
sg32
I01
sg62
S'94X_dataRun2_v11'
p517
sg15
I01
sbsg504
g0
(g444
g2
Ntp518
Rp519
(dp520
g14
I00
sg32
I00
sg62
I00
sg15
I00
sbsg505
g0
(g58
g2
Ntp521
Rp522
(dp523
g14
I00
sg32
I00
sg62
g90
sg15
I00
sbsg506
g0
(g58
g2
Ntp524
Rp525
(dp526
g14
I00
sg32
I01
sg62
g90
sg15
I00
sbsg507
g0
(g465
g20
(lp527
tp528
Rp529
(dp530
g14
I00
sg32
I01
sg15
I00
sg33
I1
sbsg508
g0
(g58
g2
Ntp531
Rp532
(dp533
g14
I00
sg32
I00
sg62
g90
sg15
I00
sbsg501
g0
(g98
g2
Ntp534
Rp535
(dp536
g14
I00
sg32
I01
sS'authenticationPath'
p537
g0
(g58
g2
Ntp538
Rp539
(dp540
g14
I00
sg32
I00
sg62
g90
sg15
I00
sbsg15
I00
sS'messageLevel'
p541
g0
(cFWCore.ParameterSet.Types
int32
p542
g2
Ntp543
Rp544
(dp545
g14
I00
sg32
I00
sg62
I0
sg15
I00
sbsg11
(lp546
g541
aS'security'
p547
aS'authenticationSystem'
p548
ag537
asg547
g0
(g58
g2
Ntp549
Rp550
(dp551
g14
I00
sg32
I00
sg62
g90
sg15
I00
sbsg548
g0
(g542
g2
Ntp552
Rp553
(dp554
g14
I00
sg32
I00
sg62
I0
sg15
I00
sbsbsg509
g0
(g444
g2
Ntp555
Rp556
(dp557
g14
I00
sg32
I00
sg62
I00
sg15
I00
sbsg16
I19
sg502
g0
(g58
g2
Ntp558
Rp559
(dp560
g14
I00
sg32
I01
sg62
S'frontier://FrontierProd/CMS_CONDITIONS'
p561
sg15
I00
sbsg510
g0
(g444
g2
Ntp562
Rp563
(dp564
g14
I00
sg32
I00
sg62
I00
sg15
I00
sbsg34
g495
sg511
g0
(g444
g2
Ntp565
Rp566
(dp567
g14
I00
sg32
I00
sg62
I00
sg15
I00
sbsg512
g0
(g444
g2
Ntp568
Rp569
(dp570
g14
I00
sg32
I00
sg62
I00
sg15
I00
sbsg35
S'PoolDBESSource'
p571
sbsS'_Process__endpaths'
p572
g0
(cFWCore.ParameterSet.DictTypes
SortedKeysDict
p573
c__builtin__
dict
p574
(dp575
tp576
Rp577
(dp578
S'list'
p579
(lp580
sbsS'p'
p581
g0
(cFWCore.ParameterSet.SequenceTypes
Path
p582
g2
Ntp583
Rp584
(dp585
g14
I00
sS'_seq'
p586
g0
(cFWCore.ParameterSet.SequenceTypes
_SequenceCollection
p587
g2
Ntp588
Rp589
(dp590
S'_collection'
p591
(lp592
g0
(cFWCore.ParameterSet.Modules
EDAnalyzer
p593
g2
Ntp594
Rp595
(dp596
g14
I00
sg16
I110
sS'noiseFilterTag'
p597
g0
(cFWCore.ParameterSet.Types
InputTag
p598
g2
Ntp599
Rp600
(dp601
g14
I00
sg32
I01
sg15
I00
sS'_InputTag__moduleLabel'
p602
S'TriggerResults'
p603
sS'_InputTag__processName'
p604
S'PAT'
p605
sS'_InputTag__productInstance'
p606
g90
sbsS'gjetAK8Src'
p607
g0
(g598
g2
Ntp608
Rp609
(dp610
g14
I00
sg32
I00
sg15
I00
sg602
S'slimmedGenJetsAK8'
p611
sg604
g90
sg606
g90
sbsS'jetAK8Src'
p612
g0
(g598
g2
Ntp613
Rp614
(dp615
g14
I00
sg32
I00
sg15
I00
sg602
S'slimmedJetsAK8'
p616
sg604
g90
sg606
g90
sbsS'vertexSrc'
p617
g0
(g598
g2
Ntp618
Rp619
(dp620
g14
I00
sg32
I00
sg15
I00
sg602
S'offlineSlimmedPrimaryVertices'
p621
sg604
g90
sg606
g90
sbsS'muonSrc'
p622
g0
(g598
g2
Ntp623
Rp624
(dp625
g14
I00
sg32
I00
sg15
I00
sg602
S'slimmedMuons'
p626
sg604
g90
sg606
g90
sbsg35
S'Tupel'
p627
sg11
(lp628
S'triggerPrescalesTag'
p629
ag597
aS'lheSrc'
p630
ag607
ag622
aS'gjetSrc'
p631
aS'muonHLTTriggerPath2'
p632
aS'muonHLTTriggerPath1'
p633
aS'DJALOG'
p634
aS'metSrc'
p635
aS'triggerObjectTag'
p636
aS'puSrc'
p637
ag617
ag612
aS'jetSrc'
p638
aS'triggerSrc'
p639
aS'genInfoSrc'
p640
aS'yearToProcess'
p641
aS'genSrc'
p642
aS'mSrcRho'
p643
asg17
S'/afs/cern.ch/work/a/awisecar/WJetsNtuple16/CMSSW_9_4_10/src/shears/ntuple_production/grow_baobabs_cfg.py'
p644
sg634
g0
(g444
g2
Ntp645
Rp646
(dp647
g14
I00
sg32
I00
sg62
I00
sg15
I00
sbsg635
g0
(g598
g2
Ntp648
Rp649
(dp650
g14
I00
sg32
I00
sg15
I00
sg602
S'slimmedMETs'
p651
sg604
g90
sg606
g90
sbsg636
g0
(g598
g2
Ntp652
Rp653
(dp654
g14
I00
sg32
I00
sg15
I00
sg602
S'slimmedPatTrigger'
p655
sg604
g90
sg606
g90
sbsg639
g0
(g598
g2
Ntp656
Rp657
(dp658
g14
I00
sg32
I01
sg15
I00
sg602
g603
sg604
S'HLT'
p659
sg606
g90
sbsg642
g0
(g598
g2
Ntp660
Rp661
(dp662
g14
I00
sg32
I00
sg15
I00
sg602
S'prunedGenParticles'
p663
sg604
g90
sg606
g90
sbsg640
g0
(g598
g2
Ntp664
Rp665
(dp666
g14
I00
sg32
I00
sg15
I00
sg602
g186
sg604
g90
sg606
g90
sbsg630
g0
(g598
g2
Ntp667
Rp668
(dp669
g14
I00
sg32
I00
sg15
I00
sg602
g151
sg604
g90
sg606
g90
sbsg632
g0
(g58
g2
Ntp670
Rp671
(dp672
g14
I00
sg32
I00
sg62
S'HLT_IsoMu27_v9'
p673
sg15
I00
sbsg633
g0
(g58
g2
Ntp674
Rp675
(dp676
g14
I00
sg32
I00
sg62
S'HLT_IsoMu24_v6'
p677
sg15
I00
sbsg631
g0
(g598
g2
Ntp678
Rp679
(dp680
g14
I00
sg32
I00
sg15
I00
sg602
S'slimmedGenJets'
p681
sg604
g90
sg606
g90
sbsg629
g0
(g598
g2
Ntp682
Rp683
(dp684
g14
I00
sg32
I00
sg15
I00
sg602
S'patTrigger'
p685
sg604
g90
sg606
g90
sbsg15
I00
sg643
g0
(g598
g2
Ntp686
Rp687
(dp688
g14
I00
sg32
I00
sg15
I00
sg602
S'fixedGridRhoFastjetAll'
p689
sg604
g90
sg606
g90
sbsg637
g0
(g598
g2
Ntp690
Rp691
(dp692
g14
I00
sg32
I00
sg15
I00
sg602
S'slimmedAddPileupInfo'
p693
sg604
g90
sg606
g90
sbsg638
g0
(g598
g2
Ntp694
Rp695
(dp696
g14
I00
sg32
I00
sg15
I00
sg602
S'slimmedJets'
p697
sg604
g90
sg606
g90
sbsg34
S'tupel'
p698
sg641
g0
(g58
g2
Ntp699
Rp700
(dp701
g14
I00
sg32
I00
sg62
S'2017'
p702
sg15
I00
sbsbasbsg34
g581
sg15
I00
sS'_tasks'
p703
g0
(cFWCore.ParameterSet.OrderedSet
OrderedSet
p704
g2
Ntp705
Rp706
(dp707
S'map'
p708
(dp709
sS'end'
p710
(lp711
Nag711
ag711
asbsbsS'MuonDetLayerGeometryESProducer'
p712
g0
(g7
g2
Ntp713
Rp714
(dp715
g11
(lp716
sg14
I00
sg15
I00
sg16
I52
sg17
g18
sg34
g712
sg35
g712
sbsS'EcalEndcapGeometryFromDBEP'
p717
g0
(g7
g2
Ntp718
Rp719
(dp720
g11
(lp721
g443
asg14
I00
sg15
I01
sg16
I52
sg17
g18
sg34
g717
sg443
g0
(g444
g2
Ntp722
Rp723
(dp724
g14
I00
sg32
I01
sg62
I01
sg15
I01
sbsg35
g717
sbsS'MessageLogger'
p725
g0
(g70
g2
Ntp726
Rp727
(dp728
g14
I00
sS'suppressInfo'
p729
g0
(g19
g20
(lp730
tp731
Rp732
(dp733
g14
I00
sg32
I00
sg15
I00
sg33
I1
sbsS'suppressDebug'
p734
g0
(g19
g20
(lp735
tp736
Rp737
(dp738
g14
I00
sg32
I00
sg15
I00
sg33
I1
sbsS'cout'
p739
g0
(g98
g2
Ntp740
Rp741
(dp742
g14
I00
sg32
I00
sS'placeholder'
p743
g0
(g444
g2
Ntp744
Rp745
(dp746
g14
I00
sg32
I00
sg62
I01
sg15
I00
sbsg15
I00
sg11
(lp747
g743
asbsg16
I10
sS'debugModules'
p748
g0
(g19
g20
(lp749
tp750
Rp751
(dp752
g14
I00
sg32
I00
sg15
I00
sg33
I1
sbsg35
g725
sS'fwkJobReports'
p753
g0
(g19
g20
(lp754
S'FrameworkJobReport'
p755
atp756
Rp757
(dp758
g14
I00
sg32
I00
sg15
I00
sg33
I1
sbsg11
(lp759
g729
aS'debugs'
p760
ag734
ag739
aS'cerr_stats'
p761
aS'warnings'
p762
aS'default'
p763
aS'statistics'
p764
aS'cerr'
p765
ag755
aS'suppressWarning'
p766
aS'errors'
p767
aS'destinations'
p768
ag748
aS'infos'
p769
aS'categories'
p770
ag753
asg764
g0
(g19
g20
(lp771
g761
atp772
Rp773
(dp774
g14
I00
sg32
I00
sg15
I00
sg33
I1
sbsg17
g18
sg768
g0
(g19
g20
(lp775
g762
ag767
ag769
ag760
ag739
ag765
atp776
Rp777
(dp778
g14
I00
sg32
I00
sg15
I00
sg33
I1
sbsg760
g0
(g98
g2
Ntp779
Rp780
(dp781
g14
I00
sg32
I00
sg743
g0
(g444
g2
Ntp782
Rp783
(dp784
g14
I00
sg32
I00
sg62
I01
sg15
I00
sbsg15
I00
sg11
(lp785
g743
asbsg762
g0
(g98
g2
Ntp786
Rp787
(dp788
g14
I00
sg32
I00
sg743
g0
(g444
g2
Ntp789
Rp790
(dp791
g14
I00
sg32
I00
sg62
I01
sg15
I00
sbsg15
I00
sg11
(lp792
g743
asbsg767
g0
(g98
g2
Ntp793
Rp794
(dp795
g14
I00
sg32
I00
sg743
g0
(g444
g2
Ntp796
Rp797
(dp798
g14
I00
sg32
I00
sg62
I01
sg15
I00
sbsg15
I00
sg11
(lp799
g743
asbsg755
g0
(g98
g2
Ntp800
Rp801
(dp802
g14
I00
sg32
I00
sg15
I00
sg763
g0
(g98
g2
Ntp803
Rp804
(dp805
g14
I00
sg32
I00
sS'limit'
p806
g0
(g542
g2
Ntp807
Rp808
(dp809
g14
I00
sg32
I00
sg62
I0
sg15
I00
sbsg15
I00
sg11
(lp810
g806
asbsS'FwkJob'
p811
g0
(g98
g2
Ntp812
Rp813
(dp814
g14
I00
sg32
I00
sg15
I00
sg806
g0
(g542
g2
Ntp815
Rp816
(dp817
g14
I00
sg32
I00
sg62
I10000000
sg15
I00
sbsg11
(lp818
S'optionalPSet'
p819
ag806
asg819
g0
(g444
g2
Ntp820
Rp821
(dp822
g14
I00
sg32
I00
sg62
I01
sg15
I00
sbsbsg11
(lp823
g763
ag819
ag811
asg819
g0
(g444
g2
Ntp824
Rp825
(dp826
g14
I00
sg32
I00
sg62
I01
sg15
I00
sbsbsg766
g0
(g19
g20
(lp827
tp828
Rp829
(dp830
g14
I00
sg32
I00
sg15
I00
sg33
I1
sbsg769
g0
(g98
g2
Ntp831
Rp832
(dp833
g14
I00
sg32
I00
sg15
I00
sS'Root_NoDictionary'
p834
g0
(g98
g2
Ntp835
Rp836
(dp837
g14
I00
sg32
I00
sg15
I00
sg806
g0
(g542
g2
Ntp838
Rp839
(dp840
g14
I00
sg32
I00
sg62
I0
sg15
I00
sbsg11
(lp841
g819
ag806
asg819
g0
(g444
g2
Ntp842
Rp843
(dp844
g14
I00
sg32
I00
sg62
I01
sg15
I00
sbsbsg11
(lp845
g819
ag834
ag743
asg819
g0
(g444
g2
Ntp846
Rp847
(dp848
g14
I00
sg32
I00
sg62
I01
sg15
I00
sbsg743
g0
(g444
g2
Ntp849
Rp850
(dp851
g14
I00
sg32
I00
sg62
I01
sg15
I00
sbsbsg770
g0
(g19
g20
(lp852
g811
aS'FwkReport'
p853
aS'FwkSummary'
p854
ag834
atp855
Rp856
(dp857
g14
I00
sg32
I00
sg15
I00
sg33
I1
sbsg15
I00
sg761
g0
(g98
g2
Ntp858
Rp859
(dp860
g14
I00
sg32
I00
sg15
I00
sg819
g0
(g444
g2
Ntp861
Rp862
(dp863
g14
I00
sg32
I00
sg62
I01
sg15
I00
sbsg11
(lp864
S'threshold'
p865
aS'output'
p866
ag819
asg865
g0
(g58
g2
Ntp867
Rp868
(dp869
g14
I00
sg32
I00
sg62
S'WARNING'
p870
sg15
I00
sbsg866
g0
(g58
g2
Ntp871
Rp872
(dp873
g14
I00
sg32
I00
sg62
g765
sg15
I00
sbsbsg763
g0
(g98
g2
Ntp874
Rp875
(dp876
g14
I00
sg32
I00
sg15
I00
sg11
(lp877
sbsg76
I01
sg765
g0
(g98
g2
Ntp878
Rp879
(dp880
g14
I00
sg32
I00
sS'noTimeStamps'
p881
g0
(g444
g2
Ntp882
Rp883
(dp884
g14
I00
sg32
I00
sg62
I00
sg15
I00
sbsg853
g0
(g98
g2
Ntp885
Rp886
(dp887
g14
I00
sg32
I00
sg15
I01
sS'reportEvery'
p888
g0
(g542
g2
Ntp889
Rp890
(dp891
g14
I00
sg32
I00
sg62
I1000
sg15
I01
sbsg806
g0
(g542
g2
Ntp892
Rp893
(dp894
g14
I00
sg32
I00
sg62
I10000000
sg15
I00
sbsg11
(lp895
g888
ag819
ag806
asg819
g0
(g444
g2
Ntp896
Rp897
(dp898
g14
I00
sg32
I00
sg62
I01
sg15
I00
sbsbsg15
I00
sg763
g0
(g98
g2
Ntp899
Rp900
(dp901
g14
I00
sg32
I00
sg806
g0
(g542
g2
Ntp902
Rp903
(dp904
g14
I00
sg32
I00
sg62
I10000000
sg15
I00
sbsg15
I00
sg11
(lp905
g806
asbsg834
g0
(g98
g2
Ntp906
Rp907
(dp908
g14
I00
sg32
I00
sg15
I00
sg806
g0
(g542
g2
Ntp909
Rp910
(dp911
g14
I00
sg32
I00
sg62
I0
sg15
I00
sbsg11
(lp912
g819
ag806
asg819
g0
(g444
g2
Ntp913
Rp914
(dp915
g14
I00
sg32
I00
sg62
I01
sg15
I00
sbsbsS'INFO'
p916
g0
(g98
g2
Ntp917
Rp918
(dp919
g14
I00
sg32
I00
sg806
g0
(g542
g2
Ntp920
Rp921
(dp922
g14
I00
sg32
I00
sg62
I0
sg15
I00
sbsg15
I00
sg11
(lp923
g806
asbsg819
g0
(g444
g2
Ntp924
Rp925
(dp926
g14
I00
sg32
I00
sg62
I01
sg15
I00
sbsg811
g0
(g98
g2
Ntp927
Rp928
(dp929
g14
I00
sg32
I00
sg15
I00
sg806
g0
(g542
g2
Ntp930
Rp931
(dp932
g14
I00
sg32
I00
sg62
I0
sg15
I00
sbsg11
(lp933
g819
ag806
asg819
g0
(g444
g2
Ntp934
Rp935
(dp936
g14
I00
sg32
I00
sg62
I01
sg15
I00
sbsbsg854
g0
(g98
g2
Ntp937
Rp938
(dp939
g14
I00
sg32
I00
sg15
I00
sg888
g0
(g542
g2
Ntp940
Rp941
(dp942
g14
I00
sg32
I00
sg62
I1
sg15
I00
sbsg806
g0
(g542
g2
Ntp943
Rp944
(dp945
g14
I00
sg32
I00
sg62
I10000000
sg15
I00
sbsg11
(lp946
g888
ag819
ag806
asg819
g0
(g444
g2
Ntp947
Rp948
(dp949
g14
I00
sg32
I00
sg62
I01
sg15
I00
sbsbsg11
(lp950
g916
ag881
ag853
ag763
ag834
ag865
ag811
ag854
ag819
asg865
g0
(g58
g2
Ntp951
Rp952
(dp953
g14
I00
sg32
I00
sg62
g916
sg15
I00
sbsbsbsS'_Process__services'
p954
(dp955
g725
g727
sS'DQMStore'
p956
g0
(g70
g2
Ntp957
Rp958
(dp959
g11
(lp960
S'referenceFileName'
p961
aS'verbose'
p962
aS'collateHistograms'
p963
aS'enableMultiThread'
p964
aS'forceResetOnBeginLumi'
p965
aS'LSbasedMode'
p966
aS'verboseQT'
p967
asg14
I00
sg76
I01
sg962
g0
(g542
g2
Ntp968
Rp969
(dp970
g14
I00
sg32
I00
sg62
I0
sg15
I00
sbsg963
g0
(g444
g2
Ntp971
Rp972
(dp973
g14
I00
sg32
I00
sg62
I00
sg15
I00
sbsg961
g0
(g58
g2
Ntp974
Rp975
(dp976
g14
I00
sg32
I00
sg62
g90
sg15
I00
sbsg964
g0
(g444
g2
Ntp977
Rp978
(dp979
g14
I00
sg32
I00
sg62
I00
sg15
I00
sbsg965
g0
(g444
g2
Ntp980
Rp981
(dp982
g14
I00
sg32
I00
sg62
I00
sg15
I00
sbsg16
I10
sg966
g0
(g444
g2
Ntp983
Rp984
(dp985
g14
I00
sg32
I00
sg62
I00
sg15
I00
sbsg17
g18
sg967
g0
(g542
g2
Ntp986
Rp987
(dp988
g14
I00
sg32
I00
sg62
I0
sg15
I00
sbsg35
g956
sg15
I00
sbsg93
g95
sg69
g72
ssg956
g958
sS'CastorGeometryFromDBEP'
p989
g0
(g7
g2
Ntp990
Rp991
(dp992
g11
(lp993
g443
asg14
I00
sg15
I00
sg16
I52
sg17
g18
sg34
g989
sg443
g0
(g444
g2
Ntp994
Rp995
(dp996
g14
I00
sg32
I01
sg62
I00
sg15
I00
sbsg35
g989
sbsS'HFRecalParameterBlock'
p997
g0
(g98
g2
Ntp998
Rp999
(dp1000
g14
I00
sg32
I01
sg15
I00
sS'HFdepthTwoParameterA'
p1001
g0
(cFWCore.ParameterSet.Types
vdouble
p1002
g20
(lp1003
F0.002861
aF0.004168
aF0.0064
aF0.008388
aF0.011601
aF0.014425
aF0.018633
aF0.023232
aF0.028274
aF0.035447
aF0.051579
aF0.086593
atp1004
Rp1005
(dp1006
g14
I00
sg32
I01
sg15
I00
sbsS'HFdepthOneParameterA'
p1007
g0
(g1002
g20
(lp1008
F0.004123
aF0.00602
aF0.008201
aF0.010489
aF0.013379
aF0.016997
aF0.021464
aF0.027371
aF0.034195
aF0.044807
aF0.058939
aF0.125497
atp1009
Rp1010
(dp1011
g14
I00
sg32
I01
sg15
I00
sbsS'HFdepthOneParameterB'
p1012
g0
(g1002
g20
(lp1013
F-4e-06
aF-2e-06
aF0.0
aF4e-06
aF1.5e-05
aF2.6e-05
aF6.3e-05
aF8.4e-05
aF0.00016
aF0.000107
aF0.000425
aF0.000209
atp1014
Rp1015
(dp1016
g14
I00
sg32
I01
sg15
I00
sbsS'HFdepthTwoParameterB'
p1017
g0
(g1002
g20
(lp1018
F-2e-06
aF-0.0
aF-7e-06
aF-6e-06
aF-2e-06
aF1e-06
aF1.9e-05
aF3.1e-05
aF6.7e-05
aF1.2e-05
aF0.000157
aF-3e-06
atp1019
Rp1020
(dp1021
g14
I00
sg32
I01
sg15
I00
sbsg11
(lp1022
g1007
ag1012
ag1017
ag1001
asg34
g997
sbsS'trackerGeometryDB'
p1023
g0
(g7
g2
Ntp1024
Rp1025
(dp1026
g11
(lp1027
g86
aS'fromDDD'
p1028
ag443
aS'alignmentsLabel'
p1029
asg14
I00
sg86
g0
(g58
g2
Ntp1030
Rp1031
(dp1032
g14
I00
sg32
I01
sg62
g90
sg15
I00
sbsg15
I00
sg1029
g0
(g58
g2
Ntp1033
Rp1034
(dp1035
g14
I00
sg32
I01
sg62
g90
sg15
I00
sbsg17
g18
sg16
I52
sg34
g1023
sg1028
g0
(g444
g2
Ntp1036
Rp1037
(dp1038
g14
I00
sg32
I01
sg62
I00
sg15
I00
sbsg443
g0
(g444
g2
Ntp1039
Rp1040
(dp1041
g14
I00
sg32
I01
sg62
I01
sg15
I00
sbsg35
S'TrackerDigiGeometryESModule'
p1042
sbsS'eegeom'
p1043
g0
(g496
g2
Ntp1044
Rp1045
(dp1046
g11
(lp1047
S'iovIsRunNotTime'
p1048
aS'recordName'
p1049
aS'firstValid'
p1050
asg14
I00
sg15
I00
sg16
I6
sg1049
g0
(g58
g2
Ntp1051
Rp1052
(dp1053
g14
I00
sg32
I01
sg62
S'EcalMappingRcd'
p1054
sg15
I00
sbsg17
S'/cvmfs/cms.cern.ch/slc6_amd64_gcc630/cms/cmssw/CMSSW_9_4_10/python/Geometry/EcalMapping/EcalMappingRecord_cfi.py'
p1055
sg1050
g0
(cFWCore.ParameterSet.Types
vuint32
p1056
g20
(lp1057
I1
atp1058
Rp1059
(dp1060
g14
I00
sg32
I01
sg15
I00
sbsg34
g1043
sg1048
g0
(g444
g2
Ntp1061
Rp1062
(dp1063
g14
I00
sg32
I01
sg62
I01
sg15
I00
sbsg35
S'EmptyESSource'
p1064
sbsg698
g595
sS'_Process__vpsets'
p1065
(dp1066
sS'EcalTrigTowerConstituentsMapBuilder'
p1067
g0
(g7
g2
Ntp1068
Rp1069
(dp1070
g11
(lp1071
S'MapFile'
p1072
asg14
I00
sg15
I00
sg1072
g0
(g58
g2
Ntp1073
Rp1074
(dp1075
g14
I00
sg32
I00
sg62
S'Geometry/EcalMapping/data/EndCap_TTMap.txt'
p1076
sg15
I00
sbsg17
g18
sg16
I52
sg34
g1067
sg35
g1067
sbsS'siStripBackPlaneCorrectionDepESProducer'
p1077
g0
(g7
g2
Ntp1078
Rp1079
(dp1080
g11
(lp1081
S'LatencyRecord'
p1082
aS'BackPlaneCorrectionDeconvMode'
p1083
aS'BackPlaneCorrectionPeakMode'
p1084
asg14
I00
sg15
I00
sg16
I52
sg17
g18
sg1082
g0
(g98
g2
Ntp1085
Rp1086
(dp1087
g14
I00
sg32
I01
sg15
I00
sg57
g0
(g58
g2
Ntp1088
Rp1089
(dp1090
g14
I00
sg32
I00
sg62
g90
sg15
I00
sbsg470
g0
(g58
g2
Ntp1091
Rp1092
(dp1093
g14
I00
sg32
I01
sg62
S'SiStripLatencyRcd'
p1094
sg15
I00
sbsg11
(lp1095
g470
ag57
asbsg1084
g0
(g98
g2
Ntp1096
Rp1097
(dp1098
g14
I00
sg32
I01
sg15
I00
sg57
g0
(g58
g2
Ntp1099
Rp1100
(dp1101
g14
I00
sg32
I00
sg62
S'peak'
p1102
sg15
I00
sbsg470
g0
(g58
g2
Ntp1103
Rp1104
(dp1105
g14
I00
sg32
I01
sg62
S'SiStripBackPlaneCorrectionRcd'
p1106
sg15
I00
sbsg11
(lp1107
g470
ag57
asbsg34
g1077
sg1083
g0
(g98
g2
Ntp1108
Rp1109
(dp1110
g14
I00
sg32
I01
sg15
I00
sg57
g0
(g58
g2
Ntp1111
Rp1112
(dp1113
g14
I00
sg32
I00
sg62
S'deconvolution'
p1114
sg15
I00
sbsg470
g0
(g58
g2
Ntp1115
Rp1116
(dp1117
g14
I00
sg32
I01
sg62
g1106
sg15
I00
sbsg11
(lp1118
g470
ag57
asbsg35
S'SiStripBackPlaneCorrectionDepESProducer'
p1119
sbsS'_Process__esprefers'
p1120
(dp1121
S'es_prefer_hcalHardcode'
p1122
g0
(cFWCore.ParameterSet.Modules
ESPrefer
p1123
g2
Ntp1124
Rp1125
(dp1126
g11
(lp1127
sg14
I00
sg15
I00
sS'_targetLabel'
p1128
S'es_hardcode'
p1129
sg16
I88
sg17
g18
sg34
g1122
sg35
S'HcalHardcodeCalibrations'
p1130
sbssS'_Process__isStrict'
p1131
I00
sS'HepPDTESSource'
p1132
g0
(g496
g2
Ntp1133
Rp1134
(dp1135
g11
(lp1136
S'pdtFileName'
p1137
asg14
I00
sg1137
g0
(cFWCore.ParameterSet.Types
FileInPath
p1138
g2
Ntp1139
Rp1140
(dp1141
g14
I00
sg32
I01
sg62
S'SimGeneral/HepPDTESSource/data/pythiaparticle.tbl'
p1142
sg15
I00
sbsg15
I00
sg16
I4
sg17
S'/cvmfs/cms.cern.ch/slc6_amd64_gcc630/cms/cmssw/CMSSW_9_4_10/python/SimGeneral/HepPDTESSource/pythiapdt_cfi.py'
p1143
sg34
g1132
sg35
g1132
sbsS'_Process__outputmodules'
p1144
(dp1145
sS'_Process__analyzers'
p1146
(dp1147
g698
g595
ssS'idealForDigiTrackerGeometry'
p1148
g0
(g7
g2
Ntp1149
Rp1150
(dp1151
g11
(lp1152
g86
ag1028
ag443
ag1029
asg14
I00
sg86
g0
(g58
g2
Ntp1153
Rp1154
(dp1155
g14
I00
sg32
I01
sg62
S'idealForDigi'
p1156
sg15
I01
sbsg15
I01
sg1029
g0
(g58
g2
Ntp1157
Rp1158
(dp1159
g14
I00
sg32
I01
sg62
S'fakeForIdeal'
p1160
sg15
I01
sbsg17
S'/cvmfs/cms.cern.ch/slc6_amd64_gcc630/cms/cmssw/CMSSW_9_4_10/python/Geometry/TrackerGeometryBuilder/idealForDigiTrackerGeometryDB_cff.py'
p1161
sg16
I8
sg34
g1148
sg1028
g0
(g444
g2
Ntp1162
Rp1163
(dp1164
g14
I00
sg32
I01
sg62
I00
sg15
I00
sbsg443
g0
(g444
g2
Ntp1165
Rp1166
(dp1167
g14
I00
sg32
I01
sg62
I00
sg15
I01
sbsg35
g1042
sbsS'_Process__looper'
p1168
NsS'_Process__tasks'
p1169
(dp1170
sS'_Process__paths'
p1171
g0
(g573
g574
(dp1172
g581
g584
stp1173
Rp1174
(dp1175
g579
(lp1176
g581
asbsS'MuonNumberingInitialization'
p1177
g0
(g7
g2
Ntp1178
Rp1179
(dp1180
g11
(lp1181
sg14
I00
sg15
I00
sg16
I52
sg17
g18
sg34
g1177
sg35
g1177
sbsS'options'
p1182
g0
(g98
g2
Ntp1183
Rp1184
(dp1185
g14
I00
sg32
I00
sg15
I00
sS'wantSummary'
p1186
g0
(g444
g2
Ntp1187
Rp1188
(dp1189
g14
I00
sg32
I00
sg62
I01
sg15
I00
sbsg11
(lp1190
g1186
asg34
g1182
sbsS'DTGeometryESModule'
p1191
g0
(g7
g2
Ntp1192
Rp1193
(dp1194
g11
(lp1195
g86
ag1028
ag443
ag1029
asg14
I00
sg86
g0
(g58
g2
Ntp1196
Rp1197
(dp1198
g14
I00
sg32
I01
sg62
g90
sg15
I00
sbsg15
I00
sg1029
g0
(g58
g2
Ntp1199
Rp1200
(dp1201
g14
I00
sg32
I01
sg62
g90
sg15
I00
sbsg17
g18
sg16
I52
sg34
g1191
sg1028
g0
(g444
g2
Ntp1202
Rp1203
(dp1204
g14
I00
sg32
I01
sg62
I00
sg15
I00
sbsg443
g0
(g444
g2
Ntp1205
Rp1206
(dp1207
g14
I00
sg32
I01
sg62
I01
sg15
I00
sbsg35
g1191
sbsS'VolumeBasedMagneticFieldESProducer'
p1208
g0
(g7
g2
Ntp1209
Rp1210
(dp1211
g11
(lp1212
S'valueOverride'
p1213
aS'debugBuilder'
p1214
ag57
asg14
I00
sg1213
g0
(g542
g2
Ntp1215
Rp1216
(dp1217
g14
I00
sg32
I01
sg62
I18268
sg15
I01
sbsg16
I52
sg17
g18
sg57
g0
(g58
g2
Ntp1218
Rp1219
(dp1220
g14
I00
sg32
I00
sg62
g90
sg15
I00
sbsg1214
g0
(g444
g2
Ntp1221
Rp1222
(dp1223
g14
I00
sg32
I00
sg62
I00
sg15
I00
sbsg34
g1208
sg35
S'VolumeBasedMagneticFieldESProducerFromDB'
p1224
sg15
I01
sbsS'CaloTopologyBuilder'
p1225
g0
(g7
g2
Ntp1226
Rp1227
(dp1228
g11
(lp1229
sg14
I00
sg15
I00
sg16
I52
sg17
g18
sg34
g1225
sg35
g1225
sbsS'SiStripRecHitMatcherESProducer'
p1230
g0
(g7
g2
Ntp1231
Rp1232
(dp1233
g11
(lp1234
S'PreFilter'
p1235
aS'ComponentName'
p1236
aS'NSigmaInside'
p1237
asg14
I00
sg15
I00
sg17
g18
sg1236
g0
(g58
g2
Ntp1238
Rp1239
(dp1240
g14
I00
sg32
I01
sg62
S'StandardMatcher'
p1241
sg15
I00
sbsg1235
g0
(g444
g2
Ntp1242
Rp1243
(dp1244
g14
I00
sg32
I01
sg62
I00
sg15
I00
sbsg16
I52
sg1237
g0
(cFWCore.ParameterSet.Types
double
p1245
g2
Ntp1246
Rp1247
(dp1248
g14
I00
sg32
I01
sg62
F3.0
sg15
I00
sbsg34
g1230
sg35
g1230
sbsS'_Process__psets'
p1249
(dp1250
S'maxEvents'
p1251
g0
(g98
g2
Ntp1252
Rp1253
(dp1254
g14
I00
sg32
I00
sg15
I00
sg11
(lp1255
S'input'
p1256
asg34
g1251
sg1256
g0
(g542
g2
Ntp1257
Rp1258
(dp1259
g14
I00
sg32
I00
sg62
I-1
sg15
I00
sbsbsg997
g999
sg1182
g1184
ssS'_Process__essources'
p1260
(dp1261
g1132
g1134
sg1129
g0
(g496
g2
Ntp1262
Rp1263
(dp1264
g14
I00
sg16
I155
sS'useHEUpgrade'
p1265
g0
(g444
g2
Ntp1266
Rp1267
(dp1268
g14
I00
sg32
I01
sg62
I00
sg15
I00
sbsS'HBRecalibration'
p1269
g0
(g444
g2
Ntp1270
Rp1271
(dp1272
g14
I00
sg32
I01
sg62
I00
sg15
I00
sbsS'useLayer0Weight'
p1273
g0
(g444
g2
Ntp1274
Rp1275
(dp1276
g14
I00
sg32
I01
sg62
I00
sg15
I00
sbsS'HEmeanenergies'
p1277
g0
(g1138
g2
Ntp1278
Rp1279
(dp1280
g14
I00
sg32
I01
sg62
S'CalibCalorimetry/HcalPlugins/data/meanenergiesHE.txt'
p1281
sg15
I00
sbsg997
g999
sS'heUpgrade'
p1282
g0
(g98
g2
Ntp1283
Rp1284
(dp1285
g14
I00
sg32
I01
sS'qieType'
p1286
g0
(g542
g2
Ntp1287
Rp1288
(dp1289
g14
I00
sg32
I01
sg62
I2
sg15
I00
sbsg15
I00
sS'pedestalWidth'
p1290
g0
(g1245
g2
Ntp1291
Rp1292
(dp1293
g14
I00
sg32
I01
sg62
F1.5
sg15
I00
sbsS'recoShape'
p1294
g0
(g542
g2
Ntp1295
Rp1296
(dp1297
g14
I00
sg32
I01
sg62
I203
sg15
I00
sbsS'darkCurrent'
p1298
g0
(g1002
g20
(lp1299
F0.01
aF0.015
atp1300
Rp1301
(dp1302
g14
I00
sg32
I01
sg15
I00
sbsS'qieOffset'
p1303
g0
(g1002
g20
(lp1304
F0.0
aF0.0
aF0.0
aF0.0
atp1305
Rp1306
(dp1307
g14
I00
sg32
I01
sg15
I00
sbsS'qieSlope'
p1308
g0
(g1002
g20
(lp1309
F0.05376
aF0.05376
aF0.05376
aF0.05376
atp1310
Rp1311
(dp1312
g14
I00
sg32
I01
sg15
I00
sbsS'radiationDamage'
p1313
g0
(g98
g2
Ntp1314
Rp1315
(dp1316
g14
I00
sg32
I01
sS'temperatureNew'
p1317
g0
(g1245
g2
Ntp1318
Rp1319
(dp1320
g14
I00
sg32
I01
sg62
I5
sg15
I00
sbsg15
I00
sS'depVsNeutrons'
p1321
g0
(g1002
g20
(lp1322
F5.69e-11
aF7.9e-11
atp1323
Rp1324
(dp1325
g14
I00
sg32
I01
sg15
I00
sbsS'temperatureBase'
p1326
g0
(g1245
g2
Ntp1327
Rp1328
(dp1329
g14
I00
sg32
I01
sg62
I20
sg15
I00
sbsS'depVsTemp'
p1330
g0
(g1245
g2
Ntp1331
Rp1332
(dp1333
g14
I00
sg32
I01
sg62
F0.0631
sg15
I00
sbsS'intlumiOffset'
p1334
g0
(g1245
g2
Ntp1335
Rp1336
(dp1337
g14
I00
sg32
I01
sg62
I75
sg15
I00
sbsg11
(lp1338
g1317
ag1321
ag1326
ag1330
ag1334
aS'intlumiToNeutrons'
p1339
asg1339
g0
(g1245
g2
Ntp1340
Rp1341
(dp1342
g14
I00
sg32
I01
sg62
F29200000.0
sg15
I00
sbsbsS'doRadiationDamage'
p1343
g0
(g444
g2
Ntp1344
Rp1345
(dp1346
g14
I00
sg32
I01
sg62
I01
sg15
I00
sbsg11
(lp1347
g1286
ag1290
ag1294
aS'photoelectronsToAnalog'
p1348
ag1303
ag1308
ag1313
ag1343
ag1298
aS'pedestal'
p1349
aS'mcShape'
p1350
aS'gainWidth'
p1351
aS'gain'
p1352
asg1348
g0
(g1245
g2
Ntp1353
Rp1354
(dp1355
g14
I00
sg32
I01
sg62
F44.0
sg15
I00
sbsg1349
g0
(g1245
g2
Ntp1356
Rp1357
(dp1358
g14
I00
sg32
I01
sg62
F17.3
sg15
I00
sbsg1350
g0
(g542
g2
Ntp1359
Rp1360
(dp1361
g14
I00
sg32
I01
sg62
I203
sg15
I00
sbsg1351
g0
(g1002
g20
(lp1362
I0
atp1363
Rp1364
(dp1365
g14
I00
sg32
I01
sg15
I00
sbsg1352
g0
(g1002
g20
(lp1366
F0.0004393673110720562
atp1367
Rp1368
(dp1369
g14
I00
sg32
I01
sg15
I00
sbsbsg11
(lp1370
g507
ag1269
ag1273
ag1277
ag997
ag1282
aS'useHOUpgrade'
p1371
aS'killHE'
p1372
aS'useHBUpgrade'
p1373
aS'hbUpgrade'
p1374
aS'testHEPlan1'
p1375
aS'iLumi'
p1376
aS'testHFQIE10'
p1377
aS'HBmeanenergies'
p1378
ag1265
aS'GainWidthsForTrigPrims'
p1379
aS'HBreCalibCutoff'
p1380
aS'HFRecalibration'
p1381
aS'ho'
p1382
aS'hb'
p1383
aS'hf'
p1384
aS'he'
p1385
aS'HERecalibration'
p1386
aS'useHFUpgrade'
p1387
aS'HEreCalibCutoff'
p1388
aS'SiPMCharacteristics'
p1389
aS'hfUpgrade'
p1390
asg17
S'/cvmfs/cms.cern.ch/slc6_amd64_gcc630/cms/cmssw/CMSSW_9_4_10/python/CalibCalorimetry/HcalPlugins/Hcal_Conditions_forGlobalTag_cff.py'
p1391
sg1371
g0
(g444
g2
Ntp1392
Rp1393
(dp1394
g14
I00
sg32
I01
sg62
I01
sg15
I00
sbsg1372
g0
(g444
g2
Ntp1395
Rp1396
(dp1397
g14
I00
sg32
I01
sg62
I00
sg15
I00
sbsg1373
g0
(g444
g2
Ntp1398
Rp1399
(dp1400
g14
I00
sg32
I01
sg62
I00
sg15
I00
sbsg1374
g0
(g98
g2
Ntp1401
Rp1402
(dp1403
g14
I00
sg32
I01
sg1286
g0
(g542
g2
Ntp1404
Rp1405
(dp1406
g14
I00
sg32
I01
sg62
I2
sg15
I00
sbsg15
I00
sg1290
g0
(g1245
g2
Ntp1407
Rp1408
(dp1409
g14
I00
sg32
I01
sg62
F1.5
sg15
I00
sbsg1294
g0
(g542
g2
Ntp1410
Rp1411
(dp1412
g14
I00
sg32
I01
sg62
I203
sg15
I00
sbsg1298
g0
(g1002
g20
(lp1413
F0.01
aF0.015
atp1414
Rp1415
(dp1416
g14
I00
sg32
I01
sg15
I00
sbsg1303
g0
(g1002
g20
(lp1417
F0.0
aF0.0
aF0.0
aF0.0
atp1418
Rp1419
(dp1420
g14
I00
sg32
I01
sg15
I00
sbsg1308
g0
(g1002
g20
(lp1421
F0.05376
aF0.05376
aF0.05376
aF0.05376
atp1422
Rp1423
(dp1424
g14
I00
sg32
I01
sg15
I00
sbsg1313
g0
(g98
g2
Ntp1425
Rp1426
(dp1427
g14
I00
sg32
I01
sg1317
g0
(g1245
g2
Ntp1428
Rp1429
(dp1430
g14
I00
sg32
I01
sg62
I-5
sg15
I00
sbsg15
I00
sg1321
g0
(g1002
g20
(lp1431
F5.69e-11
aF7.9e-11
atp1432
Rp1433
(dp1434
g14
I00
sg32
I01
sg15
I00
sbsg1326
g0
(g1245
g2
Ntp1435
Rp1436
(dp1437
g14
I00
sg32
I01
sg62
I20
sg15
I00
sbsg1330
g0
(g1245
g2
Ntp1438
Rp1439
(dp1440
g14
I00
sg32
I01
sg62
F0.0631
sg15
I00
sbsg1334
g0
(g1245
g2
Ntp1441
Rp1442
(dp1443
g14
I00
sg32
I01
sg62
I150
sg15
I00
sbsg11
(lp1444
g1317
ag1321
ag1326
ag1330
ag1334
ag1339
asg1339
g0
(g1245
g2
Ntp1445
Rp1446
(dp1447
g14
I00
sg32
I01
sg62
F367000000.0
sg15
I00
sbsbsg1343
g0
(g444
g2
Ntp1448
Rp1449
(dp1450
g14
I00
sg32
I01
sg62
I01
sg15
I00
sbsg11
(lp1451
g1286
ag1290
ag1294
ag1348
ag1303
ag1308
ag1313
ag1343
ag1298
ag1349
ag1350
ag1351
ag1352
asg1348
g0
(g1245
g2
Ntp1452
Rp1453
(dp1454
g14
I00
sg32
I01
sg62
F44.0
sg15
I00
sbsg1349
g0
(g1245
g2
Ntp1455
Rp1456
(dp1457
g14
I00
sg32
I01
sg62
F17.3
sg15
I00
sbsg1350
g0
(g542
g2
Ntp1458
Rp1459
(dp1460
g14
I00
sg32
I01
sg62
I203
sg15
I00
sbsg1351
g0
(g1002
g20
(lp1461
I0
atp1462
Rp1463
(dp1464
g14
I00
sg32
I01
sg15
I00
sbsg1352
g0
(g1002
g20
(lp1465
F0.0004393673110720562
atp1466
Rp1467
(dp1468
g14
I00
sg32
I01
sg15
I00
sbsbsg35
g1130
sg1375
g0
(g444
g2
Ntp1469
Rp1470
(dp1471
g14
I00
sg32
I01
sg62
I00
sg15
I00
sbsg1376
g0
(g1245
g2
Ntp1472
Rp1473
(dp1474
g14
I00
sg32
I01
sg62
F-1.0
sg15
I00
sbsg1377
g0
(g444
g2
Ntp1475
Rp1476
(dp1477
g14
I00
sg32
I01
sg62
I00
sg15
I00
sbsg1378
g0
(g1138
g2
Ntp1478
Rp1479
(dp1480
g14
I00
sg32
I01
sg62
S'CalibCalorimetry/HcalPlugins/data/meanenergiesHB.txt'
p1481
sg15
I00
sbsg507
g0
(g19
g20
(lp1482
S'GainWidths'
p1483
atp1484
Rp1485
(dp1486
g14
I00
sg32
I00
sg15
I00
sg33
I1
sbsg1379
g0
(g444
g2
Ntp1487
Rp1488
(dp1489
g14
I00
sg32
I01
sg62
I00
sg15
I00
sbsg1380
g0
(g1245
g2
Ntp1490
Rp1491
(dp1492
g14
I00
sg32
I01
sg62
F20.0
sg15
I00
sbsg1381
g0
(g444
g2
Ntp1493
Rp1494
(dp1495
g14
I00
sg32
I01
sg62
I00
sg15
I00
sbsg1382
g0
(g98
g2
Ntp1496
Rp1497
(dp1498
g14
I00
sg32
I01
sg1286
g0
(g542
g2
Ntp1499
Rp1500
(dp1501
g14
I00
sg32
I01
sg62
I0
sg15
I00
sbsg15
I00
sg1290
g0
(g1245
g2
Ntp1502
Rp1503
(dp1504
g14
I00
sg32
I01
sg62
F0.6285
sg15
I00
sbsg1294
g0
(g542
g2
Ntp1505
Rp1506
(dp1507
g14
I00
sg32
I01
sg62
I201
sg15
I00
sbsg1298
g0
(g1002
g20
(lp1508
F0.0
atp1509
Rp1510
(dp1511
g14
I00
sg32
I01
sg15
I00
sbsg1303
g0
(g1002
g20
(lp1512
F-0.44
aF1.4
aF7.1
aF38.5
atp1513
Rp1514
(dp1515
g14
I00
sg32
I01
sg15
I00
sbsg1308
g0
(g1002
g20
(lp1516
F0.907
aF0.915
aF0.92
aF0.921
atp1517
Rp1518
(dp1519
g14
I00
sg32
I01
sg15
I00
sbsg1352
g0
(g1002
g20
(lp1520
F0.006
aF0.0087
atp1521
Rp1522
(dp1523
g14
I00
sg32
I01
sg15
I00
sbsg1343
g0
(g444
g2
Ntp1524
Rp1525
(dp1526
g14
I00
sg32
I01
sg62
I00
sg15
I00
sbsg11
(lp1527
g1286
ag1290
ag1294
ag1348
ag1303
ag1308
ag1352
ag1343
ag1298
ag1349
ag1350
ag1351
asg1348
g0
(g1245
g2
Ntp1528
Rp1529
(dp1530
g14
I00
sg32
I01
sg62
F4.0
sg15
I00
sbsg1349
g0
(g1245
g2
Ntp1531
Rp1532
(dp1533
g14
I00
sg32
I01
sg62
F12.06
sg15
I00
sbsg1350
g0
(g542
g2
Ntp1534
Rp1535
(dp1536
g14
I00
sg32
I01
sg62
I201
sg15
I00
sbsg1351
g0
(g1002
g20
(lp1537
F0.0
aF0.0
atp1538
Rp1539
(dp1540
g14
I00
sg32
I01
sg15
I00
sbsbsg1383
g0
(g98
g2
Ntp1541
Rp1542
(dp1543
g14
I00
sg32
I01
sg1286
g0
(g542
g2
Ntp1544
Rp1545
(dp1546
g14
I00
sg32
I01
sg62
I0
sg15
I00
sbsg15
I00
sg1290
g0
(g1245
g2
Ntp1547
Rp1548
(dp1549
g14
I00
sg32
I01
sg62
F0.809
sg15
I00
sbsg1294
g0
(g542
g2
Ntp1550
Rp1551
(dp1552
g14
I00
sg32
I01
sg62
I105
sg15
I00
sbsg1298
g0
(g1002
g20
(lp1553
F0.0
atp1554
Rp1555
(dp1556
g14
I00
sg32
I01
sg15
I00
sbsg1303
g0
(g1002
g20
(lp1557
F-0.49
aF1.8
aF7.2
aF37.9
atp1558
Rp1559
(dp1560
g14
I00
sg32
I01
sg15
I00
sbsg1308
g0
(g1002
g20
(lp1561
F0.912
aF0.917
aF0.922
aF0.923
atp1562
Rp1563
(dp1564
g14
I00
sg32
I01
sg15
I00
sbsg1352
g0
(g1002
g20
(lp1565
F0.19
atp1566
Rp1567
(dp1568
g14
I00
sg32
I01
sg15
I00
sbsg1343
g0
(g444
g2
Ntp1569
Rp1570
(dp1571
g14
I00
sg32
I01
sg62
I00
sg15
I00
sbsg11
(lp1572
g1286
ag1290
ag1294
ag1348
ag1303
ag1308
ag1352
ag1343
ag1298
ag1349
ag1350
ag1351
asg1348
g0
(g1245
g2
Ntp1573
Rp1574
(dp1575
g14
I00
sg32
I01
sg62
F0.3305
sg15
I00
sbsg1349
g0
(g1245
g2
Ntp1576
Rp1577
(dp1578
g14
I00
sg32
I01
sg62
F3.285
sg15
I00
sbsg1350
g0
(g542
g2
Ntp1579
Rp1580
(dp1581
g14
I00
sg32
I01
sg62
I125
sg15
I00
sbsg1351
g0
(g1002
g20
(lp1582
F0.0
atp1583
Rp1584
(dp1585
g14
I00
sg32
I01
sg15
I00
sbsbsg1384
g0
(g98
g2
Ntp1586
Rp1587
(dp1588
g14
I00
sg32
I01
sg1286
g0
(g542
g2
Ntp1589
Rp1590
(dp1591
g14
I00
sg32
I01
sg62
I0
sg15
I00
sbsg15
I00
sg1290
g0
(g1245
g2
Ntp1592
Rp1593
(dp1594
g14
I00
sg32
I01
sg62
F2.516
sg15
I00
sbsg1294
g0
(g542
g2
Ntp1595
Rp1596
(dp1597
g14
I00
sg32
I01
sg62
I301
sg15
I00
sbsg1298
g0
(g1002
g20
(lp1598
F0.0
atp1599
Rp1600
(dp1601
g14
I00
sg32
I01
sg15
I00
sbsg1303
g0
(g1002
g20
(lp1602
F-0.87
aF1.4
aF7.8
aF-29.6
atp1603
Rp1604
(dp1605
g14
I00
sg32
I01
sg15
I00
sbsg1308
g0
(g1002
g20
(lp1606
F0.359
aF0.358
aF0.36
aF0.367
atp1607
Rp1608
(dp1609
g14
I00
sg32
I01
sg15
I00
sbsg1352
g0
(g1002
g20
(lp1610
F0.14
aF0.135
atp1611
Rp1612
(dp1613
g14
I00
sg32
I01
sg15
I00
sbsg1343
g0
(g444
g2
Ntp1614
Rp1615
(dp1616
g14
I00
sg32
I01
sg62
I00
sg15
I00
sbsg11
(lp1617
g1286
ag1290
ag1294
ag1348
ag1303
ag1308
ag1352
ag1343
ag1298
ag1349
ag1350
ag1351
asg1348
g0
(g1245
g2
Ntp1618
Rp1619
(dp1620
g14
I00
sg32
I01
sg62
F0.0
sg15
I00
sbsg1349
g0
(g1245
g2
Ntp1621
Rp1622
(dp1623
g14
I00
sg32
I01
sg62
F9.354
sg15
I00
sbsg1350
g0
(g542
g2
Ntp1624
Rp1625
(dp1626
g14
I00
sg32
I01
sg62
I301
sg15
I00
sbsg1351
g0
(g1002
g20
(lp1627
F0.0
aF0.0
atp1628
Rp1629
(dp1630
g14
I00
sg32
I01
sg15
I00
sbsbsg1385
g0
(g98
g2
Ntp1631
Rp1632
(dp1633
g14
I00
sg32
I01
sg1286
g0
(g542
g2
Ntp1634
Rp1635
(dp1636
g14
I00
sg32
I01
sg62
I0
sg15
I00
sbsg15
I00
sg1290
g0
(g1245
g2
Ntp1637
Rp1638
(dp1639
g14
I00
sg32
I01
sg62
F0.9698
sg15
I00
sbsg1294
g0
(g542
g2
Ntp1640
Rp1641
(dp1642
g14
I00
sg32
I01
sg62
I105
sg15
I00
sbsg1298
g0
(g1002
g20
(lp1643
F0.0
atp1644
Rp1645
(dp1646
g14
I00
sg32
I01
sg15
I00
sbsg1303
g0
(g1002
g20
(lp1647
F-0.38
aF2.0
aF7.6
aF39.6
atp1648
Rp1649
(dp1650
g14
I00
sg32
I01
sg15
I00
sbsg1308
g0
(g1002
g20
(lp1651
F0.912
aF0.916
aF0.92
aF0.922
atp1652
Rp1653
(dp1654
g14
I00
sg32
I01
sg15
I00
sbsg1352
g0
(g1002
g20
(lp1655
F0.23
atp1656
Rp1657
(dp1658
g14
I00
sg32
I01
sg15
I00
sbsg1343
g0
(g444
g2
Ntp1659
Rp1660
(dp1661
g14
I00
sg32
I01
sg62
I00
sg15
I00
sbsg11
(lp1662
g1286
ag1290
ag1294
ag1348
ag1303
ag1308
ag1352
ag1343
ag1298
ag1349
ag1350
ag1351
asg1348
g0
(g1245
g2
Ntp1663
Rp1664
(dp1665
g14
I00
sg32
I01
sg62
F0.3305
sg15
I00
sbsg1349
g0
(g1245
g2
Ntp1666
Rp1667
(dp1668
g14
I00
sg32
I01
sg62
F3.163
sg15
I00
sbsg1350
g0
(g542
g2
Ntp1669
Rp1670
(dp1671
g14
I00
sg32
I01
sg62
I125
sg15
I00
sbsg1351
g0
(g1002
g20
(lp1672
I0
atp1673
Rp1674
(dp1675
g14
I00
sg32
I01
sg15
I00
sbsbsg15
I00
sg1386
g0
(g444
g2
Ntp1676
Rp1677
(dp1678
g14
I00
sg32
I01
sg62
I00
sg15
I00
sbsg1387
g0
(g444
g2
Ntp1679
Rp1680
(dp1681
g14
I00
sg32
I01
sg62
I00
sg15
I00
sbsg1388
g0
(g1245
g2
Ntp1682
Rp1683
(dp1684
g14
I00
sg32
I01
sg62
F20.0
sg15
I00
sbsg1389
g0
(g465
g20
(lp1685
g0
(g98
g2
Ntp1686
Rp1687
(dp1688
g14
I00
sg32
I01
sg15
I00
sS'crosstalk'
p1689
g0
(g1245
g2
Ntp1690
Rp1691
(dp1692
g14
I00
sg32
I01
sg62
F0.0
sg15
I00
sbsS'nonlin1'
p1693
g0
(g1245
g2
Ntp1694
Rp1695
(dp1696
g14
I00
sg32
I01
sg62
F1.0
sg15
I00
sbsS'nonlin3'
p1697
g0
(g1245
g2
Ntp1698
Rp1699
(dp1700
g14
I00
sg32
I01
sg62
F0.0
sg15
I00
sbsS'nonlin2'
p1701
g0
(g1245
g2
Ntp1702
Rp1703
(dp1704
g14
I00
sg32
I01
sg62
F0.0
sg15
I00
sbsg11
(lp1705
g1693
ag1697
ag1701
aS'pixels'
p1706
ag1689
asg1706
g0
(g542
g2
Ntp1707
Rp1708
(dp1709
g14
I00
sg32
I01
sg62
I36000
sg15
I00
sbsbag0
(g98
g2
Ntp1710
Rp1711
(dp1712
g14
I00
sg32
I01
sg15
I00
sg1689
g0
(g1245
g2
Ntp1713
Rp1714
(dp1715
g14
I00
sg32
I01
sg62
F0.0
sg15
I00
sbsg1693
g0
(g1245
g2
Ntp1716
Rp1717
(dp1718
g14
I00
sg32
I01
sg62
F1.0
sg15
I00
sbsg1697
g0
(g1245
g2
Ntp1719
Rp1720
(dp1721
g14
I00
sg32
I01
sg62
F0.0
sg15
I00
sbsg1701
g0
(g1245
g2
Ntp1722
Rp1723
(dp1724
g14
I00
sg32
I01
sg62
F0.0
sg15
I00
sbsg11
(lp1725
g1693
ag1697
ag1701
ag1706
ag1689
asg1706
g0
(g542
g2
Ntp1726
Rp1727
(dp1728
g14
I00
sg32
I01
sg62
I2500
sg15
I00
sbsbag0
(g98
g2
Ntp1729
Rp1730
(dp1731
g14
I00
sg32
I01
sg15
I00
sg1689
g0
(g1245
g2
Ntp1732
Rp1733
(dp1734
g14
I00
sg32
I01
sg62
F0.17
sg15
I00
sbsg1693
g0
(g1245
g2
Ntp1735
Rp1736
(dp1737
g14
I00
sg32
I01
sg62
F1.00985
sg15
I00
sbsg1697
g0
(g1245
g2
Ntp1738
Rp1739
(dp1740
g14
I00
sg32
I01
sg62
F2.86282e-10
sg15
I00
sbsg1701
g0
(g1245
g2
Ntp1741
Rp1742
(dp1743
g14
I00
sg32
I01
sg62
F7.84089e-06
sg15
I00
sbsg11
(lp1744
g1693
ag1697
ag1701
ag1706
ag1689
asg1706
g0
(g542
g2
Ntp1745
Rp1746
(dp1747
g14
I00
sg32
I01
sg62
I27370
sg15
I00
sbsbag0
(g98
g2
Ntp1748
Rp1749
(dp1750
g14
I00
sg32
I01
sg15
I00
sg1689
g0
(g1245
g2
Ntp1751
Rp1752
(dp1753
g14
I00
sg32
I01
sg62
F0.196
sg15
I00
sbsg1693
g0
(g1245
g2
Ntp1754
Rp1755
(dp1756
g14
I00
sg32
I01
sg62
F1.00546
sg15
I00
sbsg1697
g0
(g1245
g2
Ntp1757
Rp1758
(dp1759
g14
I00
sg32
I01
sg62
F1.27011e-10
sg15
I00
sbsg1701
g0
(g1245
g2
Ntp1760
Rp1761
(dp1762
g14
I00
sg32
I01
sg62
F6.40239e-06
sg15
I00
sbsg11
(lp1763
g1693
ag1697
ag1701
ag1706
ag1689
asg1706
g0
(g542
g2
Ntp1764
Rp1765
(dp1766
g14
I00
sg32
I01
sg62
I38018
sg15
I00
sbsbag0
(g98
g2
Ntp1767
Rp1768
(dp1769
g14
I00
sg32
I01
sg15
I00
sg1689
g0
(g1245
g2
Ntp1770
Rp1771
(dp1772
g14
I00
sg32
I01
sg62
F0.17
sg15
I00
sbsg1693
g0
(g1245
g2
Ntp1773
Rp1774
(dp1775
g14
I00
sg32
I01
sg62
F1.00985
sg15
I00
sbsg1697
g0
(g1245
g2
Ntp1776
Rp1777
(dp1778
g14
I00
sg32
I01
sg62
F2.86282e-10
sg15
I00
sbsg1701
g0
(g1245
g2
Ntp1779
Rp1780
(dp1781
g14
I00
sg32
I01
sg62
F7.84089e-06
sg15
I00
sbsg11
(lp1782
g1693
ag1697
ag1701
ag1706
ag1689
asg1706
g0
(g542
g2
Ntp1783
Rp1784
(dp1785
g14
I00
sg32
I01
sg62
I27370
sg15
I00
sbsbag0
(g98
g2
Ntp1786
Rp1787
(dp1788
g14
I00
sg32
I01
sg15
I00
sg1689
g0
(g1245
g2
Ntp1789
Rp1790
(dp1791
g14
I00
sg32
I01
sg62
F0.196
sg15
I00
sbsg1693
g0
(g1245
g2
Ntp1792
Rp1793
(dp1794
g14
I00
sg32
I01
sg62
F1.00546
sg15
I00
sbsg1697
g0
(g1245
g2
Ntp1795
Rp1796
(dp1797
g14
I00
sg32
I01
sg62
F1.27011e-10
sg15
I00
sbsg1701
g0
(g1245
g2
Ntp1798
Rp1799
(dp1800
g14
I00
sg32
I01
sg62
F6.40239e-06
sg15
I00
sbsg11
(lp1801
g1693
ag1697
ag1701
ag1706
ag1689
asg1706
g0
(g542
g2
Ntp1802
Rp1803
(dp1804
g14
I00
sg32
I01
sg62
I38018
sg15
I00
sbsbag0
(g98
g2
Ntp1805
Rp1806
(dp1807
g14
I00
sg32
I01
sg15
I00
sg1689
g0
(g1245
g2
Ntp1808
Rp1809
(dp1810
g14
I00
sg32
I01
sg62
F0.0
sg15
I00
sbsg1693
g0
(g1245
g2
Ntp1811
Rp1812
(dp1813
g14
I00
sg32
I01
sg62
F1.0
sg15
I00
sbsg1697
g0
(g1245
g2
Ntp1814
Rp1815
(dp1816
g14
I00
sg32
I01
sg62
F0.0
sg15
I00
sbsg1701
g0
(g1245
g2
Ntp1817
Rp1818
(dp1819
g14
I00
sg32
I01
sg62
F0.0
sg15
I00
sbsg11
(lp1820
g1693
ag1697
ag1701
ag1706
ag1689
asg1706
g0
(g542
g2
Ntp1821
Rp1822
(dp1823
g14
I00
sg32
I01
sg62
I0
sg15
I00
sbsbatp1824
Rp1825
(dp1826
g14
I00
sg32
I01
sg15
I00
sg33
I1
sbsg34
g1129
sg1390
g0
(g98
g2
Ntp1827
Rp1828
(dp1829
g14
I00
sg32
I01
sg1286
g0
(g542
g2
Ntp1830
Rp1831
(dp1832
g14
I00
sg32
I01
sg62
I1
sg15
I00
sbsg15
I00
sg1290
g0
(g1245
g2
Ntp1833
Rp1834
(dp1835
g14
I00
sg32
I01
sg62
F3.33
sg15
I00
sbsg1294
g0
(g542
g2
Ntp1836
Rp1837
(dp1838
g14
I00
sg32
I01
sg62
I301
sg15
I00
sbsg1298
g0
(g1002
g20
(lp1839
F0.0
atp1840
Rp1841
(dp1842
g14
I00
sg32
I01
sg15
I00
sbsg1303
g0
(g1002
g20
(lp1843
F0.0697
aF-0.7405
aF12.38
aF-671.9
atp1844
Rp1845
(dp1846
g14
I00
sg32
I01
sg15
I00
sbsg1308
g0
(g1002
g20
(lp1847
F0.297
aF0.298
aF0.298
aF0.313
atp1848
Rp1849
(dp1850
g14
I00
sg32
I01
sg15
I00
sbsg1352
g0
(g1002
g20
(lp1851
F0.14
aF0.135
atp1852
Rp1853
(dp1854
g14
I00
sg32
I01
sg15
I00
sbsg1343
g0
(g444
g2
Ntp1855
Rp1856
(dp1857
g14
I00
sg32
I01
sg62
I00
sg15
I00
sbsg11
(lp1858
g1286
ag1290
ag1294
ag1348
ag1303
ag1308
ag1352
ag1343
ag1298
ag1349
ag1350
ag1351
asg1348
g0
(g1245
g2
Ntp1859
Rp1860
(dp1861
g14
I00
sg32
I01
sg62
F0.0
sg15
I00
sbsg1349
g0
(g1245
g2
Ntp1862
Rp1863
(dp1864
g14
I00
sg32
I01
sg62
F13.33
sg15
I00
sbsg1350
g0
(g542
g2
Ntp1865
Rp1866
(dp1867
g14
I00
sg32
I01
sg62
I301
sg15
I00
sbsg1351
g0
(g1002
g20
(lp1868
F0.0
aF0.0
atp1869
Rp1870
(dp1871
g14
I00
sg32
I01
sg15
I00
sbsbsbsg1043
g1045
sg495
g498
ssg50
g41
sg451
g454
sg1251
g1253
sS'CSCGeometryESModule'
p1872
g0
(g7
g2
Ntp1873
Rp1874
(dp1875
g11
(lp1876
g86
aS'useDDD'
p1877
aS'debugV'
p1878
aS'useGangedStripsInME1a'
p1879
ag1029
aS'useOnlyWiresInME1a'
p1880
aS'useRealWireGeometry'
p1881
aS'useCentreTIOffsets'
p1882
ag443
asg14
I00
sg86
g0
(g58
g2
Ntp1883
Rp1884
(dp1885
g14
I00
sg32
I01
sg62
g90
sg15
I00
sbsg15
I00
sg1878
g0
(g444
g2
Ntp1886
Rp1887
(dp1888
g14
I00
sg32
I00
sg62
I00
sg15
I00
sbsg17
g18
sg1879
g0
(g444
g2
Ntp1889
Rp1890
(dp1891
g14
I00
sg32
I01
sg62
I01
sg15
I00
sbsg1029
g0
(g58
g2
Ntp1892
Rp1893
(dp1894
g14
I00
sg32
I01
sg62
g90
sg15
I00
sbsg1880
g0
(g444
g2
Ntp1895
Rp1896
(dp1897
g14
I00
sg32
I01
sg62
I00
sg15
I00
sbsg1877
g0
(g444
g2
Ntp1898
Rp1899
(dp1900
g14
I00
sg32
I01
sg62
I00
sg15
I00
sbsg16
I52
sg1882
g0
(g444
g2
Ntp1901
Rp1902
(dp1903
g14
I00
sg32
I01
sg62
I00
sg15
I00
sbsg34
g1872
sg1881
g0
(g444
g2
Ntp1904
Rp1905
(dp1906
g14
I00
sg32
I01
sg62
I01
sg15
I00
sbsg443
g0
(g444
g2
Ntp1907
Rp1908
(dp1909
g14
I00
sg32
I01
sg62
I01
sg15
I00
sbsg35
g1872
sbsS'EcalBarrelGeometryFromDBEP'
p1910
g0
(g7
g2
Ntp1911
Rp1912
(dp1913
g11
(lp1914
g443
asg14
I00
sg15
I01
sg16
I52
sg17
g18
sg34
g1910
sg443
g0
(g444
g2
Ntp1915
Rp1916
(dp1917
g14
I00
sg32
I01
sg62
I01
sg15
I01
sbsg35
g1910
sbsS'trackerNumberingGeometryDB'
p1918
g0
(g7
g2
Ntp1919
Rp1920
(dp1921
g11
(lp1922
g86
ag1028
asg14
I00
sg86
g0
(g58
g2
Ntp1923
Rp1924
(dp1925
g14
I00
sg32
I01
sg62
g90
sg15
I00
sbsg15
I00
sg16
I52
sg17
g18
sg34
g1918
sg1028
g0
(g444
g2
Ntp1926
Rp1927
(dp1928
g14
I00
sg32
I01
sg62
I00
sg15
I00
sbsg35
S'TrackerGeometricDetESModule'
p1929
sbsS'_Process__name'
p1930
S'GrowBaobabs'
p1931
sg1129
g1263
sS'_cloneToObjectDict'
p1932
(dp1933
I140161573436752
g999
sI140161573061520
g1079
sI140161573696528
g1184
sI140161573436816
g0
(g7
g2
Ntp1934
Rp1935
(dp1936
g11
(lp1937
S'file'
p1938
aS'dump'
p1939
asg14
I00
sg15
I00
sg1939
g0
(g19
g20
(lp1940
g90
atp1941
Rp1942
(dp1943
g14
I00
sg32
I00
sg15
I00
sg33
I1
sbsg16
I52
sg17
g18
sg1938
g0
(g58
g2
Ntp1944
Rp1945
(dp1946
g14
I00
sg32
I00
sg62
g90
sg15
I00
sbsg34
S'hcal_db_producer'
p1947
sg35
S'HcalDbProducer'
p1948
sbsI140161573332176
g0
(g7
g2
Ntp1949
Rp1950
(dp1951
g11
(lp1952
sg14
I00
sg15
I00
sg16
I52
sg17
g18
sg34
S'CaloTowerTopologyEP'
p1953
sg35
g1953
sbsI140161573696912
g1134
sI140161573311888
g1920
sI140161573311504
g1193
sI140161573312336
g1025
sI140161573332688
g0
(g7
g2
Ntp1954
Rp1955
(dp1956
g11
(lp1957
g443
asg14
I00
sg15
I00
sg16
I52
sg17
g18
sg34
S'ZdcGeometryFromDBEP'
p1958
sg443
g0
(g444
g2
Ntp1959
Rp1960
(dp1961
g14
I00
sg32
I01
sg62
I00
sg15
I00
sbsg35
g1958
sbsI140161573377872
g0
(g7
g2
Ntp1962
Rp1963
(dp1964
g11
(lp1965
g86
ag1028
ag443
ag1029
asg14
I00
sg86
g0
(g58
g2
Ntp1966
Rp1967
(dp1968
g14
I00
sg32
I01
sg62
g1156
sg15
I01
sbsg15
I01
sg1029
g0
(g58
g2
Ntp1969
Rp1970
(dp1971
g14
I00
sg32
I01
sg62
g1160
sg15
I01
sbsg17
S'/cvmfs/cms.cern.ch/slc6_amd64_gcc630/cms/cmssw/CMSSW_9_4_10/python/Geometry/DTGeometryBuilder/idealForDigiDtGeometryDB_cff.py'
p1972
sg16
I8
sg34
S'idealForDigiDTGeometry'
p1973
sg1028
g0
(g444
g2
Ntp1974
Rp1975
(dp1976
g14
I00
sg32
I01
sg62
I00
sg15
I00
sbsg443
g0
(g444
g2
Ntp1977
Rp1978
(dp1979
g14
I00
sg32
I01
sg62
I00
sg15
I01
sbsg35
g1191
sbsI140161573333008
g991
sI140161573312592
g0
(g7
g2
Ntp1980
Rp1981
(dp1982
g11
(lp1983
sg14
I00
sg15
I00
sg16
I52
sg17
g18
sg34
S'TrackerRecoGeometryESProducer'
p1984
sg35
g1984
sbsI140161573064272
g461
sI140161573312720
g0
(g7
g2
Ntp1985
Rp1986
(dp1987
g11
(lp1988
g86
asg14
I00
sg86
g0
(g58
g2
Ntp1989
Rp1990
(dp1991
g14
I00
sg32
I01
sg62
g90
sg15
I00
sbsg15
I00
sg16
I52
sg17
g18
sg34
S'trackerTopology'
p1992
sg35
S'TrackerTopologyEP'
p1993
sbsI140161573313296
g1227
sI140161573333328
g1069
sI140161573312912
g714
sI140161573312528
g0
(g7
g2
Ntp1994
Rp1995
(dp1996
g11
(lp1997
sg14
I00
sg15
I00
sg16
I52
sg17
g18
sg34
S'GlobalTrackingGeometryESProducer'
p1998
sg35
g1998
sbsI140161573378576
g53
sI140161573331280
g0
(g7
g2
Ntp1999
Rp2000
(dp2001
g11
(lp2002
g443
asg14
I00
sg15
I01
sg16
I52
sg17
g18
sg34
S'HcalGeometryFromDBEP'
p2003
sg443
g0
(g444
g2
Ntp2004
Rp2005
(dp2006
g14
I00
sg32
I01
sg62
I01
sg15
I01
sbsg35
g2003
sbsI140161573063312
g1232
sI140161573789648
g1874
sI140161573333776
g0
(g7
g2
Ntp2007
Rp2008
(dp2009
g11
(lp2010
sg14
I00
sg15
I00
sg16
I52
sg17
g18
sg34
S'EcalElectronicsMappingBuilder'
p2011
sg35
g2011
sbsI140161573061840
g0
(g7
g2
Ntp2012
Rp2013
(dp2014
g11
(lp2015
S'ComponentType'
p2016
ag1236
aS'parameters'
p2017
asg14
I00
sg15
I00
sg2017
g0
(g98
g2
Ntp2018
Rp2019
(dp2020
g14
I00
sg32
I01
sg15
I00
sg11
(lp2021
sbsg16
I52
sg1236
g0
(g58
g2
Ntp2022
Rp2023
(dp2024
g14
I00
sg32
I01
sg62
S'stripCPE'
p2025
sg15
I00
sbsg2016
g0
(g58
g2
Ntp2026
Rp2027
(dp2028
g14
I00
sg32
I01
sg62
S'SimpleStripCPE'
p2029
sg15
I00
sbsg17
g18
sg34
S'stripCPEESProducer'
p2030
sg35
S'StripCPEESProducer'
p2031
sbsI140161573334032
g1045
sI140161573380048
g0
(g7
g2
Ntp2032
Rp2033
(dp2034
g11
(lp2035
S'version'
p2036
ag1213
ag57
asg14
I00
sg15
I01
sg16
I52
sg17
g18
sg57
g0
(g58
g2
Ntp2037
Rp2038
(dp2039
g14
I00
sg32
I00
sg62
S'ParabolicMf'
p2040
sg15
I01
sbsg2036
g0
(g58
g2
Ntp2041
Rp2042
(dp2043
g14
I00
sg32
I01
sg62
S'Parabolic'
p2044
sg15
I00
sbsg1213
g0
(g542
g2
Ntp2045
Rp2046
(dp2047
g14
I00
sg32
I01
sg62
I18268
sg15
I01
sbsg34
S'ParabolicParametrizedMagneticFieldProducer'
p2048
sg35
S'AutoParametrizedMagneticFieldProducer'
p2049
sbsI140161573435600
g0
(g7
g2
Ntp2050
Rp2051
(dp2052
g11
(lp2053
sg14
I00
sg15
I00
sg16
I52
sg17
g18
sg34
S'EcalLaserCorrectionService'
p2054
sg35
g2054
sbsI140161573313744
g9
sI140161573039376
g0
(g7
g2
Ntp2055
Rp2056
(dp2057
g11
(lp2058
S'printDebug'
p2059
ag86
aS'APVGain'
p2060
aS'AutomaticNormalization'
p2061
asg14
I00
sg86
g0
(g58
g2
Ntp2062
Rp2063
(dp2064
g14
I00
sg32
I01
sg62
g90
sg15
I00
sbsg15
I00
sg2061
g0
(g444
g2
Ntp2065
Rp2066
(dp2067
g14
I00
sg32
I01
sg62
I00
sg15
I00
sbsg16
I52
sg2059
g0
(g444
g2
Ntp2068
Rp2069
(dp2070
g14
I00
sg32
I00
sg62
I00
sg15
I00
sbsg17
g18
sg2060
g0
(g465
g20
(lp2071
g0
(g98
g2
Ntp2072
Rp2073
(dp2074
g14
I00
sg32
I01
sg15
I00
sS'Label'
p2075
g0
(g58
g2
Ntp2076
Rp2077
(dp2078
g14
I00
sg32
I00
sg62
g90
sg15
I00
sbsS'Record'
p2079
g0
(g58
g2
Ntp2080
Rp2081
(dp2082
g14
I00
sg32
I01
sg62
S'SiStripApvGainRcd'
p2083
sg15
I00
sbsS'NormalizationFactor'
p2084
g0
(g1245
g2
Ntp2085
Rp2086
(dp2087
g14
I00
sg32
I00
sg62
F1.0
sg15
I00
sbsg11
(lp2088
g2079
ag2084
ag2075
asbag0
(g98
g2
Ntp2089
Rp2090
(dp2091
g14
I00
sg32
I01
sg15
I00
sg2075
g0
(g58
g2
Ntp2092
Rp2093
(dp2094
g14
I00
sg32
I00
sg62
g90
sg15
I00
sbsg2079
g0
(g58
g2
Ntp2095
Rp2096
(dp2097
g14
I00
sg32
I01
sg62
S'SiStripApvGain2Rcd'
p2098
sg15
I00
sbsg2084
g0
(g1245
g2
Ntp2099
Rp2100
(dp2101
g14
I00
sg32
I00
sg62
F1.0
sg15
I00
sbsg11
(lp2102
g2079
ag2084
ag2075
asbatp2103
Rp2104
(dp2105
g14
I00
sg32
I01
sg15
I00
sg33
I1
sbsg34
S'siStripGainESProducer'
p2106
sg35
S'SiStripGainESProducer'
p2107
sbsI140161573314384
g1912
sI140161573150800
g595
sI140161573061968
g0
(g7
g2
Ntp2108
Rp2109
(dp2110
g11
(lp2111
g2016
ag1236
ag2017
asg14
I00
sg15
I01
sg2017
g0
(g98
g2
Ntp2112
Rp2113
(dp2114
g14
I00
sg32
I01
sS'maxChgOneMIP'
p2115
g0
(g1245
g2
Ntp2116
Rp2117
(dp2118
g14
I00
sg32
I01
sg62
F6000.0
sg15
I00
sbsS'mLC_P2'
p2119
g0
(g1245
g2
Ntp2120
Rp2121
(dp2122
g14
I00
sg32
I01
sg62
F0.3
sg15
I00
sbsS'mLC_P1'
p2123
g0
(g1245
g2
Ntp2124
Rp2125
(dp2126
g14
I00
sg32
I01
sg62
F0.618
sg15
I00
sbsS'mLC_P0'
p2127
g0
(g1245
g2
Ntp2128
Rp2129
(dp2130
g14
I00
sg32
I01
sg62
F-0.326
sg15
I00
sbsS'useLegacyError'
p2131
g0
(g444
g2
Ntp2132
Rp2133
(dp2134
g14
I00
sg32
I01
sg62
I00
sg15
I00
sbsS'mTIB_P1'
p2135
g0
(g1245
g2
Ntp2136
Rp2137
(dp2138
g14
I00
sg32
I01
sg62
F0.202
sg15
I00
sbsS'mTEC_P1'
p2139
g0
(g1245
g2
Ntp2140
Rp2141
(dp2142
g14
I00
sg32
I01
sg62
F0.471
sg15
I00
sbsS'mTEC_P0'
p2143
g0
(g1245
g2
Ntp2144
Rp2145
(dp2146
g14
I00
sg32
I01
sg62
F-1.885
sg15
I00
sbsS'mTOB_P0'
p2147
g0
(g1245
g2
Ntp2148
Rp2149
(dp2150
g14
I00
sg32
I01
sg62
F-1.026
sg15
I00
sbsS'mTOB_P1'
p2151
g0
(g1245
g2
Ntp2152
Rp2153
(dp2154
g14
I00
sg32
I01
sg62
F0.253
sg15
I00
sbsS'mTIB_P0'
p2155
g0
(g1245
g2
Ntp2156
Rp2157
(dp2158
g14
I00
sg32
I01
sg62
F-0.742
sg15
I00
sbsg11
(lp2159
g2115
ag2119
ag2123
ag2127
ag2131
ag2139
ag2143
ag2147
ag2151
ag2155
ag2135
aS'mTID_P0'
p2160
aS'mTID_P1'
p2161
asg2160
g0
(g1245
g2
Ntp2162
Rp2163
(dp2164
g14
I00
sg32
I01
sg62
F-1.427
sg15
I00
sbsg2161
g0
(g1245
g2
Ntp2165
Rp2166
(dp2167
g14
I00
sg32
I01
sg62
F0.433
sg15
I00
sbsg15
I00
sbsg16
I4
sg1236
g0
(g58
g2
Ntp2168
Rp2169
(dp2170
g14
I00
sg32
I01
sg62
S'StripCPEfromTrackAngle'
p2171
sg15
I00
sbsg2016
g0
(g58
g2
Ntp2172
Rp2173
(dp2174
g14
I00
sg32
I01
sg62
g2171
sg15
I00
sbsg17
S'/cvmfs/cms.cern.ch/slc6_amd64_gcc630/cms/cmssw/CMSSW_9_4_10/python/RecoLocalTracker/SiStripRecHitConverter/StripCPEfromTrackAngle_cfi.py'
p2175
sg34
S'StripCPEfromTrackAngleESProducer'
p2176
sg35
g2031
sbsI140161573377040
g0
(g7
g2
Ntp2177
Rp2178
(dp2179
g11
(lp2180
g86
ag1877
ag1878
ag1879
ag1029
ag1880
ag1881
ag1882
ag443
asg14
I00
sg86
g0
(g58
g2
Ntp2181
Rp2182
(dp2183
g14
I00
sg32
I01
sg62
g1156
sg15
I01
sbsg15
I01
sg1878
g0
(g444
g2
Ntp2184
Rp2185
(dp2186
g14
I00
sg32
I00
sg62
I00
sg15
I00
sbsg17
S'/cvmfs/cms.cern.ch/slc6_amd64_gcc630/cms/cmssw/CMSSW_9_4_10/python/Geometry/CSCGeometryBuilder/idealForDigiCscGeometryDB_cff.py'
p2187
sg1879
g0
(g444
g2
Ntp2188
Rp2189
(dp2190
g14
I00
sg32
I01
sg62
I01
sg15
I00
sbsg1029
g0
(g58
g2
Ntp2191
Rp2192
(dp2193
g14
I00
sg32
I01
sg62
g1160
sg15
I01
sbsg1880
g0
(g444
g2
Ntp2194
Rp2195
(dp2196
g14
I00
sg32
I01
sg62
I00
sg15
I00
sbsg1877
g0
(g444
g2
Ntp2197
Rp2198
(dp2199
g14
I00
sg32
I01
sg62
I00
sg15
I00
sbsg16
I8
sg1882
g0
(g444
g2
Ntp2200
Rp2201
(dp2202
g14
I00
sg32
I01
sg62
I00
sg15
I00
sbsg34
S'idealForDigiCSCGeometry'
p2203
sg1881
g0
(g444
g2
Ntp2204
Rp2205
(dp2206
g14
I00
sg32
I01
sg62
I01
sg15
I00
sbsg443
g0
(g444
g2
Ntp2207
Rp2208
(dp2209
g14
I00
sg32
I01
sg62
I00
sg15
I01
sbsg35
g1872
sbsI140161573036752
g1125
sI140161573334544
g83
sI140161573314128
g719
sI140161573064336
g1253
sI140161573314256
g0
(g7
g2
Ntp2210
Rp2211
(dp2212
g11
(lp2213
g443
asg14
I00
sg15
I01
sg16
I52
sg17
g18
sg34
S'EcalPreshowerGeometryFromDBEP'
p2214
sg443
g0
(g444
g2
Ntp2215
Rp2216
(dp2217
g14
I00
sg32
I01
sg62
I01
sg15
I01
sbsg35
g2214
sbsI140161573331984
g0
(g7
g2
Ntp2218
Rp2219
(dp2220
g11
(lp2221
S'MergePosition'
p2222
aS'Exclude'
p2223
ag86
asg14
I00
sg86
g0
(g58
g2
Ntp2224
Rp2225
(dp2226
g14
I00
sg32
I01
sg62
g90
sg15
I00
sbsg15
I00
sg16
I52
sg2222
g0
(g444
g2
Ntp2227
Rp2228
(dp2229
g14
I00
sg32
I00
sg62
I01
sg15
I00
sbsg17
g18
sg34
S'hcalTopologyIdeal'
p2230
sg2223
g0
(g58
g2
Ntp2231
Rp2232
(dp2233
g14
I00
sg32
I00
sg62
g90
sg15
I00
sbsg35
S'HcalTopologyIdealEP'
p2234
sbsI140161573063440
g0
(g7
g2
Ntp2235
Rp2236
(dp2237
g11
(lp2238
sg14
I00
sg15
I00
sg16
I52
sg17
g18
sg34
S'sistripconn'
p2239
sg35
S'SiStripConnectivity'
p2240
sbsI140161573334864
g0
(g7
g2
Ntp2241
Rp2242
(dp2243
g11
(lp2244
g86
asg14
I00
sg86
g0
(g58
g2
Ntp2245
Rp2246
(dp2247
g14
I00
sg32
I01
sg62
g90
sg15
I00
sbsg15
I00
sg16
I52
sg17
g18
sg34
S'hcalDDDRecConstants'
p2248
sg35
S'HcalDDDRecConstantsESModule'
p2249
sbsI140161573378960
g1179
sI140161573379536
g1210
sI140161573748688
g454
sI140161573376080
g1150
sI140161573060816
g0
(g7
g2
Ntp2250
Rp2251
(dp2252
g11
(lp2253
g1082
aS'LorentzAngleDeconvMode'
p2254
aS'LorentzAnglePeakMode'
p2255
asg14
I00
sg15
I00
sg16
I52
sg17
g18
sg1082
g0
(g98
g2
Ntp2256
Rp2257
(dp2258
g14
I00
sg32
I01
sg15
I00
sg57
g0
(g58
g2
Ntp2259
Rp2260
(dp2261
g14
I00
sg32
I00
sg62
g90
sg15
I00
sbsg470
g0
(g58
g2
Ntp2262
Rp2263
(dp2264
g14
I00
sg32
I01
sg62
g1094
sg15
I00
sbsg11
(lp2265
g470
ag57
asbsg34
S'siStripLorentzAngleDepESProducer'
p2266
sg2255
g0
(g98
g2
Ntp2267
Rp2268
(dp2269
g14
I00
sg32
I01
sg15
I00
sg57
g0
(g58
g2
Ntp2270
Rp2271
(dp2272
g14
I00
sg32
I00
sg62
g1102
sg15
I00
sbsg470
g0
(g58
g2
Ntp2273
Rp2274
(dp2275
g14
I00
sg32
I01
sg62
S'SiStripLorentzAngleRcd'
p2276
sg15
I00
sbsg11
(lp2277
g470
ag57
asbsg35
S'SiStripLorentzAngleDepESProducer'
p2278
sg2254
g0
(g98
g2
Ntp2279
Rp2280
(dp2281
g14
I00
sg32
I01
sg15
I00
sg57
g0
(g58
g2
Ntp2282
Rp2283
(dp2284
g14
I00
sg32
I00
sg62
g1114
sg15
I00
sbsg470
g0
(g58
g2
Ntp2285
Rp2286
(dp2287
g14
I00
sg32
I01
sg62
g2276
sg15
I00
sbsg11
(lp2288
g470
ag57
asbsbsI140161573310800
g0
(g7
g2
Ntp2289
Rp2290
(dp2291
g11
(lp2292
g1877
aS'compatibiltyWith11'
p2293
asg14
I00
sg15
I00
sg16
I52
sg17
g18
sg1877
g0
(g444
g2
Ntp2294
Rp2295
(dp2296
g14
I00
sg32
I00
sg62
I00
sg15
I00
sbsg2293
g0
(g444
g2
Ntp2297
Rp2298
(dp2299
g14
I00
sg32
I00
sg62
I01
sg15
I00
sbsg34
S'RPCGeometryESModule'
p2300
sg35
g2300
sbsI140161573331344
g0
(g7
g2
Ntp2301
Rp2302
(dp2303
g11
(lp2304
sg14
I00
sg15
I00
sg16
I52
sg17
g18
sg34
S'HcalAlignmentEP'
p2305
sg35
g2305
sbsI140161573514832
g1263
sI140161573037776
g0
(g7
g2
Ntp2306
Rp2307
(dp2308
g11
(lp2309
g86
asg14
I00
sg86
g0
(g58
g2
Ntp2310
Rp2311
(dp2312
g14
I00
sg32
I01
sg62
g90
sg15
I00
sbsg15
I00
sg16
I52
sg17
g18
sg34
S'CastorDbProducer'
p2313
sg35
g2313
sbsI140161573102160
g0
(g7
g2
Ntp2314
Rp2315
(dp2316
g11
(lp2317
g86
aS'PrintDebugOutput'
p2318
aS'ThresholdForReducedGranularity'
p2319
aS'UseEmptyRunInfo'
p2320
aS'ReduceGranularity'
p2321
ag464
asg14
I00
sg86
g0
(g58
g2
Ntp2322
Rp2323
(dp2324
g14
I00
sg32
I01
sg62
g90
sg15
I00
sbsg15
I01
sg16
I52
sg17
g18
sg2319
g0
(g1245
g2
Ntp2325
Rp2326
(dp2327
g14
I00
sg32
I01
sg62
F0.3
sg15
I00
sbsg34
S'siStripQualityESProducer'
p2328
sg2320
g0
(g444
g2
Ntp2329
Rp2330
(dp2331
g14
I00
sg32
I01
sg62
I00
sg15
I00
sbsg2321
g0
(g444
g2
Ntp2332
Rp2333
(dp2334
g14
I00
sg32
I01
sg62
I00
sg15
I00
sbsg464
g0
(g465
g20
(lp2335
g0
(g98
g2
Ntp2336
Rp2337
(dp2338
g14
I00
sg32
I01
sg15
I00
sg470
g0
(g58
g2
Ntp2339
Rp2340
(dp2341
g14
I00
sg32
I01
sg62
S'SiStripDetVOffRcd'
p2342
sg15
I00
sbsg475
g0
(g58
g2
Ntp2343
Rp2344
(dp2345
g14
I00
sg32
I01
sg62
g90
sg15
I00
sbsg11
(lp2346
g470
ag475
asbag0
(g98
g2
Ntp2347
Rp2348
(dp2349
g14
I00
sg32
I01
sg15
I00
sg470
g0
(g58
g2
Ntp2350
Rp2351
(dp2352
g14
I00
sg32
I01
sg62
S'SiStripDetCablingRcd'
p2353
sg15
I00
sbsg475
g0
(g58
g2
Ntp2354
Rp2355
(dp2356
g14
I00
sg32
I01
sg62
g90
sg15
I00
sbsg11
(lp2357
g470
ag475
asbag0
(g98
g2
Ntp2358
Rp2359
(dp2360
g14
I00
sg32
I01
sg15
I00
sg470
g0
(g58
g2
Ntp2361
Rp2362
(dp2363
g14
I00
sg32
I01
sg62
S'RunInfoRcd'
p2364
sg15
I00
sbsg475
g0
(g58
g2
Ntp2365
Rp2366
(dp2367
g14
I00
sg32
I01
sg62
g90
sg15
I00
sbsg11
(lp2368
g470
ag475
asbag0
(g98
g2
Ntp2369
Rp2370
(dp2371
g14
I00
sg32
I01
sg15
I00
sg470
g0
(g58
g2
Ntp2372
Rp2373
(dp2374
g14
I00
sg32
I01
sg62
S'SiStripBadChannelRcd'
p2375
sg15
I00
sbsg475
g0
(g58
g2
Ntp2376
Rp2377
(dp2378
g14
I00
sg32
I01
sg62
g90
sg15
I00
sbsg11
(lp2379
g470
ag475
asbag0
(g98
g2
Ntp2380
Rp2381
(dp2382
g14
I00
sg32
I01
sg15
I00
sg470
g0
(g58
g2
Ntp2383
Rp2384
(dp2385
g14
I00
sg32
I01
sg62
S'SiStripBadFiberRcd'
p2386
sg15
I00
sbsg475
g0
(g58
g2
Ntp2387
Rp2388
(dp2389
g14
I00
sg32
I01
sg62
g90
sg15
I00
sbsg11
(lp2390
g470
ag475
asbag0
(g98
g2
Ntp2391
Rp2392
(dp2393
g14
I00
sg32
I01
sg15
I00
sg470
g0
(g58
g2
Ntp2394
Rp2395
(dp2396
g14
I00
sg32
I01
sg62
S'SiStripBadModuleRcd'
p2397
sg15
I00
sbsg475
g0
(g58
g2
Ntp2398
Rp2399
(dp2400
g14
I00
sg32
I01
sg62
g90
sg15
I00
sbsg11
(lp2401
g470
ag475
asbag0
(g98
g2
Ntp2402
Rp2403
(dp2404
g14
I00
sg32
I01
sg15
I00
sg470
g0
(g58
g2
Ntp2405
Rp2406
(dp2407
g14
I00
sg32
I01
sg62
S'SiStripBadStripRcd'
p2408
sg15
I00
sbsg475
g0
(g58
g2
Ntp2409
Rp2410
(dp2411
g14
I00
sg32
I01
sg62
g90
sg15
I00
sbsg11
(lp2412
g470
ag475
asbatp2413
Rp2414
(dp2415
g14
I00
sg32
I01
sg15
I00
sg33
I1
sbsg35
S'SiStripQualityESProducer'
p2416
sg2318
g0
(g444
g2
Ntp2417
Rp2418
(dp2419
g14
I00
sg32
I01
sg62
I00
sg15
I00
sbsbsI140161573435088
g498
sI140161573331664
g440
sI140161573151952
g584
sI140161573376784
g0
(g7
g2
Ntp2420
Rp2421
(dp2422
g11
(lp2423
g86
asg14
I00
sg86
g0
(g58
g2
Ntp2424
Rp2425
(dp2426
g14
I00
sg32
I01
sg62
g1160
sg15
I01
sbsg15
I01
sg16
I5
sg17
S'/cvmfs/cms.cern.ch/slc6_amd64_gcc630/cms/cmssw/CMSSW_9_4_10/python/Alignment/CommonAlignmentProducer/fakeForIdealAlignmentProducer_cfi.py'
p2427
sg34
S'fakeForIdealAlignment'
p2428
sg35
S'FakeAlignmentProducer'
p2429
sbssg2106
g2056
sg2300
g2290
sg2239
g2236
sg1958
g1955
sg1984
g1981
sg2266
g2251
sg1953
g1950
sg2048
g2033
sg2030
g2013
sg1992
g1986
sg2003
g2000
sg1122
g1125
sg2011
g2008
sg2176
g2109
sS'_Process__aliases'
p2430
(dp2431
sg1998
g1995
sg2230
g2219
sg2305
g2302
sg2214
g2211
sg2248
g2242
sg2313
g2307
sg2203
g2178
sS'_Process__subProcesses'
p2432
(lp2433
sg1947
g1935
sg2054
g2051
sS'_Process__schedule'
p2434
Nsg2328
g2315
sg1973
g1963
sS'_Process__modifiers'
p2435
(tsS'_Process__filters'
p2436
(dp2437
sS'_Process__esproducers'
p2438
(dp2439
g6
g9
sg2328
g2315
sg2054
g2051
sg1984
g1981
sg1208
g1210
sg2176
g2109
sg989
g991
sg1225
g1227
sg1998
g1995
sg51
g53
sg1023
g1025
sg2266
g2251
sg2230
g2219
sg2305
g2302
sg2214
g2211
sg2313
g2307
sg2248
g2242
sg1872
g1874
sg1910
g1912
sg1918
g1920
sg2011
g2008
sg1067
g1069
sg2203
g2178
sg438
g440
sg1077
g1079
sg1947
g1935
sg2106
g2056
sg1230
g1232
sg2300
g2290
sg1973
g1963
sg1958
g1955
sg1191
g1193
sg717
g719
sg2239
g2236
sg459
g461
sg1148
g1150
sg1953
g1950
sg2048
g2033
sg2030
g2013
sg81
g83
sg712
g714
sg1992
g1986
sg1177
g1179
sg2428
g2421
sg2003
g2000
ssS'_Process__partialschedules'
p2440
(dp2441
sg2428
g2421
sb.